
tigress:	file format ELF64-x86-64

Disassembly of section .interp:
.interp:
     238:	2f  <unknown>
     239:	6c 	insb	%dx, %es:(%rdi)
     23a:	69 62 36 34 2f 6c 64 	imull	$1684811572, 54(%rdx), %esp
     241:	2d 6c 69 6e 75 	subl	$1970170220, %eax
     246:	78 2d 	js	45 <.interp+0x3d>
     248:	78 38 	js	56 <.interp+0x4a>
     24a:	36 2d 36 34 2e 73 	subl	$1932407862, %eax
     250:	6f 	outsl	(%rsi), %dx
     251:	2e 32 00 	xorb	%cs:(%rax), %al
Disassembly of section .gnu.hash:
.gnu.hash:
     298:	01 00 	addl	%eax, (%rax)
     29a:	00 00 	addb	%al, (%rax)
     29c:	01 00 	addl	%eax, (%rax)
     29e:	00 00 	addb	%al, (%rax)
     2a0:	01 00 	addl	%eax, (%rax)
     2a2:	00 00 	addb	%al, (%rax)
     2a4:	00 00 	addb	%al, (%rax)
     2a6:	00 00 	addb	%al, (%rax)
     2a8:	00 00 	addb	%al, (%rax)
     2aa:	00 00 	addb	%al, (%rax)
     2ac:	00 00 	addb	%al, (%rax)
     2ae:	00 00 	addb	%al, (%rax)
     2b0:	00 00 	addb	%al, (%rax)
     2b2:	00 00 	addb	%al, (%rax)
Disassembly of section .dynsym:
.dynsym:
     2b8:	00 00 	addb	%al, (%rax)
     2ba:	00 00 	addb	%al, (%rax)
     2bc:	00 00 	addb	%al, (%rax)
     2be:	00 00 	addb	%al, (%rax)
     2c0:	00 00 	addb	%al, (%rax)
     2c2:	00 00 	addb	%al, (%rax)
     2c4:	00 00 	addb	%al, (%rax)
     2c6:	00 00 	addb	%al, (%rax)
     2c8:	00 00 	addb	%al, (%rax)
     2ca:	00 00 	addb	%al, (%rax)
     2cc:	00 00 	addb	%al, (%rax)
     2ce:	00 00 	addb	%al, (%rax)
     2d0:	4d 00 00 	addb	%r8b, (%r8)
     2d3:	00 12 	addb	%dl, (%rdx)
     2d5:	00 00 	addb	%al, (%rax)
     2d7:	00 00 	addb	%al, (%rax)
     2d9:	00 00 	addb	%al, (%rax)
     2db:	00 00 	addb	%al, (%rax)
     2dd:	00 00 	addb	%al, (%rax)
     2df:	00 00 	addb	%al, (%rax)
     2e1:	00 00 	addb	%al, (%rax)
     2e3:	00 00 	addb	%al, (%rax)
     2e5:	00 00 	addb	%al, (%rax)
     2e7:	00 a2 00 00 00 20 	addb	%ah, 536870912(%rdx)
     2ed:	00 00 	addb	%al, (%rax)
     2ef:	00 00 	addb	%al, (%rax)
     2f1:	00 00 	addb	%al, (%rax)
     2f3:	00 00 	addb	%al, (%rax)
     2f5:	00 00 	addb	%al, (%rax)
     2f7:	00 00 	addb	%al, (%rax)
     2f9:	00 00 	addb	%al, (%rax)
     2fb:	00 00 	addb	%al, (%rax)
     2fd:	00 00 	addb	%al, (%rax)
     2ff:	00 3f 	addb	%bh, (%rdi)
     301:	00 00 	addb	%al, (%rax)
     303:	00 12 	addb	%dl, (%rdx)
     305:	00 00 	addb	%al, (%rax)
     307:	00 00 	addb	%al, (%rax)
     309:	00 00 	addb	%al, (%rax)
     30b:	00 00 	addb	%al, (%rax)
     30d:	00 00 	addb	%al, (%rax)
     30f:	00 00 	addb	%al, (%rax)
     311:	00 00 	addb	%al, (%rax)
     313:	00 00 	addb	%al, (%rax)
     315:	00 00 	addb	%al, (%rax)
     317:	00 38 	addb	%bh, (%rax)
     319:	00 00 	addb	%al, (%rax)
     31b:	00 12 	addb	%dl, (%rdx)
     31d:	00 00 	addb	%al, (%rax)
     31f:	00 00 	addb	%al, (%rax)
     321:	00 00 	addb	%al, (%rax)
     323:	00 00 	addb	%al, (%rax)
     325:	00 00 	addb	%al, (%rax)
     327:	00 00 	addb	%al, (%rax)
     329:	00 00 	addb	%al, (%rax)
     32b:	00 00 	addb	%al, (%rax)
     32d:	00 00 	addb	%al, (%rax)
     32f:	00 20 	addb	%ah, (%rax)
     331:	00 00 	addb	%al, (%rax)
     333:	00 12 	addb	%dl, (%rdx)
     335:	00 00 	addb	%al, (%rax)
     337:	00 00 	addb	%al, (%rax)
     339:	00 00 	addb	%al, (%rax)
     33b:	00 00 	addb	%al, (%rax)
     33d:	00 00 	addb	%al, (%rax)
     33f:	00 00 	addb	%al, (%rax)
     341:	00 00 	addb	%al, (%rax)
     343:	00 00 	addb	%al, (%rax)
     345:	00 00 	addb	%al, (%rax)
     347:	00 31 	addb	%dh, (%rcx)
     349:	00 00 	addb	%al, (%rax)
     34b:	00 12 	addb	%dl, (%rdx)
     34d:	00 00 	addb	%al, (%rax)
     34f:	00 00 	addb	%al, (%rax)
     351:	00 00 	addb	%al, (%rax)
     353:	00 00 	addb	%al, (%rax)
     355:	00 00 	addb	%al, (%rax)
     357:	00 00 	addb	%al, (%rax)
     359:	00 00 	addb	%al, (%rax)
     35b:	00 00 	addb	%al, (%rax)
     35d:	00 00 	addb	%al, (%rax)
     35f:	00 70 00 	addb	%dh, (%rax)
     362:	00 00 	addb	%al, (%rax)
     364:	12 00 	adcb	(%rax), %al
     366:	00 00 	addb	%al, (%rax)
     368:	00 00 	addb	%al, (%rax)
     36a:	00 00 	addb	%al, (%rax)
     36c:	00 00 	addb	%al, (%rax)
     36e:	00 00 	addb	%al, (%rax)
     370:	00 00 	addb	%al, (%rax)
     372:	00 00 	addb	%al, (%rax)
     374:	00 00 	addb	%al, (%rax)
     376:	00 00 	addb	%al, (%rax)
     378:	be 00 00 00 20 	movl	$536870912, %esi
     37d:	00 00 	addb	%al, (%rax)
     37f:	00 00 	addb	%al, (%rax)
     381:	00 00 	addb	%al, (%rax)
     383:	00 00 	addb	%al, (%rax)
     385:	00 00 	addb	%al, (%rax)
     387:	00 00 	addb	%al, (%rax)
     389:	00 00 	addb	%al, (%rax)
     38b:	00 00 	addb	%al, (%rax)
     38d:	00 00 	addb	%al, (%rax)
     38f:	00 5a 00 	addb	%bl, (%rdx)
     392:	00 00 	addb	%al, (%rax)
     394:	12 00 	adcb	(%rax), %al
     396:	00 00 	addb	%al, (%rax)
     398:	00 00 	addb	%al, (%rax)
     39a:	00 00 	addb	%al, (%rax)
     39c:	00 00 	addb	%al, (%rax)
     39e:	00 00 	addb	%al, (%rax)
     3a0:	00 00 	addb	%al, (%rax)
     3a2:	00 00 	addb	%al, (%rax)
     3a4:	00 00 	addb	%al, (%rax)
     3a6:	00 00 	addb	%al, (%rax)
     3a8:	46 00 00 	addb	%r8b, (%rax)
     3ab:	00 12 	addb	%dl, (%rdx)
     3ad:	00 00 	addb	%al, (%rax)
     3af:	00 00 	addb	%al, (%rax)
     3b1:	00 00 	addb	%al, (%rax)
     3b3:	00 00 	addb	%al, (%rax)
     3b5:	00 00 	addb	%al, (%rax)
     3b7:	00 00 	addb	%al, (%rax)
     3b9:	00 00 	addb	%al, (%rax)
     3bb:	00 00 	addb	%al, (%rax)
     3bd:	00 00 	addb	%al, (%rax)
     3bf:	00 53 00 	addb	%dl, (%rbx)
     3c2:	00 00 	addb	%al, (%rax)
     3c4:	12 00 	adcb	(%rax), %al
     3c6:	00 00 	addb	%al, (%rax)
     3c8:	00 00 	addb	%al, (%rax)
     3ca:	00 00 	addb	%al, (%rax)
     3cc:	00 00 	addb	%al, (%rax)
     3ce:	00 00 	addb	%al, (%rax)
     3d0:	00 00 	addb	%al, (%rax)
     3d2:	00 00 	addb	%al, (%rax)
     3d4:	00 00 	addb	%al, (%rax)
     3d6:	00 00 	addb	%al, (%rax)
     3d8:	0b 00 	orl	(%rax), %eax
     3da:	00 00 	addb	%al, (%rax)
     3dc:	12 00 	adcb	(%rax), %al
     3de:	00 00 	addb	%al, (%rax)
     3e0:	00 00 	addb	%al, (%rax)
     3e2:	00 00 	addb	%al, (%rax)
     3e4:	00 00 	addb	%al, (%rax)
     3e6:	00 00 	addb	%al, (%rax)
     3e8:	00 00 	addb	%al, (%rax)
     3ea:	00 00 	addb	%al, (%rax)
     3ec:	00 00 	addb	%al, (%rax)
     3ee:	00 00 	addb	%al, (%rax)
     3f0:	11 00 	adcl	%eax, (%rax)
     3f2:	00 00 	addb	%al, (%rax)
     3f4:	12 00 	adcb	(%rax), %al
     3f6:	00 00 	addb	%al, (%rax)
     3f8:	00 00 	addb	%al, (%rax)
     3fa:	00 00 	addb	%al, (%rax)
     3fc:	00 00 	addb	%al, (%rax)
     3fe:	00 00 	addb	%al, (%rax)
     400:	00 00 	addb	%al, (%rax)
     402:	00 00 	addb	%al, (%rax)
     404:	00 00 	addb	%al, (%rax)
     406:	00 00 	addb	%al, (%rax)
     408:	cd 00 	int	$0
     40a:	00 00 	addb	%al, (%rax)
     40c:	20 00 	andb	%al, (%rax)
     40e:	00 00 	addb	%al, (%rax)
     410:	00 00 	addb	%al, (%rax)
     412:	00 00 	addb	%al, (%rax)
     414:	00 00 	addb	%al, (%rax)
     416:	00 00 	addb	%al, (%rax)
     418:	00 00 	addb	%al, (%rax)
     41a:	00 00 	addb	%al, (%rax)
     41c:	00 00 	addb	%al, (%rax)
     41e:	00 00 	addb	%al, (%rax)
     420:	61  <unknown>
     421:	00 00 	addb	%al, (%rax)
     423:	00 22 	addb	%ah, (%rdx)
     425:	00 00 	addb	%al, (%rax)
     427:	00 00 	addb	%al, (%rax)
     429:	00 00 	addb	%al, (%rax)
     42b:	00 00 	addb	%al, (%rax)
     42d:	00 00 	addb	%al, (%rax)
     42f:	00 00 	addb	%al, (%rax)
     431:	00 00 	addb	%al, (%rax)
     433:	00 00 	addb	%al, (%rax)
     435:	00 00 	addb	%al, (%rax)
     437:	00  <unknown>
Disassembly of section .dynstr:
.dynstr:
     438:	00 6c 69 62 	addb	%ch, 98(%rcx,%rbp,2)
     43c:	63 2e 	movslq	(%rsi), %ebp
     43e:	73 6f 	jae	111 <.dynstr+0x77>
     440:	2e 36 00 66 6f 	addb	%ah, %ss:111(%rsi)
     445:	70 65 	jo	101 <.dynstr+0x74>
     447:	6e 	outsb	(%rsi), %dx
     448:	00 5f 5f 	addb	%bl, 95(%rdi)
     44b:	69 73 6f 63 39 39 5f 	imull	$1597585763, 111(%rbx), %esi
     452:	73 63 	jae	99 <.dynstr+0x7f>
     454:	61  <unknown>
     455:	6e 	outsb	(%rsi), %dx
     456:	66 00 5f 5f 	addb	%bl, 95(%rdi)
     45a:	73 74 	jae	116 <.dynstr+0x98>
     45c:	61  <unknown>
     45d:	63 6b 5f 	movslq	95(%rbx), %ebp
     460:	63 68 6b 	movslq	107(%rax), %ebp
     463:	5f 	popq	%rdi
     464:	66 61  <unknown>
     466:	69 6c 00 70 72 69 6e 74 	imull	$1953393010, 112(%rax,%rax), %ebp
     46e:	66 00 73 74 	addb	%dh, 116(%rbx)
     472:	72 6c 	jb	108 <.dynstr+0xa8>
     474:	65 6e 	outsb	%gs:(%rsi), %dx
     476:	00 66 63 	addb	%ah, 99(%rsi)
     479:	6c 	insb	%dx, %es:(%rdi)
     47a:	6f 	outsl	(%rsi), %dx
     47b:	73 65 	jae	101 <.dynstr+0xaa>
     47d:	00 6d 61 	addb	%ch, 97(%rbp)
     480:	6c 	insb	%dx, %es:(%rdi)
     481:	6c 	insb	%dx, %es:(%rdi)
     482:	6f 	outsl	(%rsi), %dx
     483:	63 00 	movslq	(%rax), %eax
     485:	72 61 	jb	97 <.dynstr+0xb0>
     487:	69 73 65 00 70 74 72 	imull	$1920233472, 101(%rbx), %esi
     48e:	61  <unknown>
     48f:	63 65 00 	movslq	(%rbp), %esp
     492:	66 69 6c 65 6e 6f 00 	imulw	$111, 110(%rbp,%riz,2), %bp
     499:	5f 	popq	%rdi
     49a:	5f 	popq	%rdi
     49b:	63 78 61 	movslq	97(%rax), %edi
     49e:	5f 	popq	%rdi
     49f:	66 69 6e 61 6c 69 	imulw	$26988, 97(%rsi), %bp
     4a5:	7a 65 	jp	101 <.dynstr+0xd4>
     4a7:	00 5f 5f 	addb	%bl, 95(%rdi)
     4aa:	6c 	insb	%dx, %es:(%rdi)
     4ab:	69 62 63 5f 73 74 61 	imull	$1635021663, 99(%rdx), %esp
     4b2:	72 74 	jb	116
     4b4:	5f 	popq	%rdi
     4b5:	6d 	insl	%dx, %es:(%rdi)
     4b6:	61  <unknown>
     4b7:	69 6e 00 47 4c 49 42 	imull	$1112099911, (%rsi), %ebp
     4be:	43 5f 	popq	%r15
     4c0:	32 2e 	xorb	(%rsi), %ch
     4c2:	37  <unknown>
     4c3:	00 47 4c 	addb	%al, 76(%rdi)
     4c6:	49 42  <unknown>
     4c8:	43 5f 	popq	%r15
     4ca:	32 2e 	xorb	(%rsi), %ch
     4cc:	34 00 	xorb	$0, %al
     4ce:	47 4c  <unknown>
     4d0:	49 42  <unknown>
     4d2:	43 5f 	popq	%r15
     4d4:	32 2e 	xorb	(%rsi), %ch
     4d6:	32 2e 	xorb	(%rsi), %ch
     4d8:	35 00 5f 49 54 	xorl	$1414094592, %eax
     4dd:	4d 5f 	popq	%r15
     4df:	64 65 72 65 	jb	101
     4e3:	67 69 73 74 65 72 54 4d 	imull	$1297379941, 116(%ebx), %esi
     4eb:	43 6c 	insb	%dx, %es:(%rdi)
     4ed:	6f 	outsl	(%rsi), %dx
     4ee:	6e 	outsb	(%rsi), %dx
     4ef:	65 54 	pushq	%rsp
     4f1:	61  <unknown>
     4f2:	62  <unknown>
     4f3:	6c 	insb	%dx, %es:(%rdi)
     4f4:	65 00 5f 5f 	addb	%bl, %gs:95(%rdi)
     4f8:	67 6d 	insl	%dx, %es:(%edi)
     4fa:	6f 	outsl	(%rsi), %dx
     4fb:	6e 	outsb	(%rsi), %dx
     4fc:	5f 	popq	%rdi
     4fd:	73 74 	jae	116
     4ff:	61  <unknown>
     500:	72 74 	jb	116
     502:	5f 	popq	%rdi
     503:	5f 	popq	%rdi
     504:	00 5f 49 	addb	%bl, 73(%rdi)
     507:	54 	pushq	%rsp
     508:	4d 5f 	popq	%r15
     50a:	72 65 	jb	101
     50c:	67 69 73 74 65 72 54 4d 	imull	$1297379941, 116(%ebx), %esi
     514:	43 6c 	insb	%dx, %es:(%rdi)
     516:	6f 	outsl	(%rsi), %dx
     517:	6e 	outsb	(%rsi), %dx
     518:	65 54 	pushq	%rsp
     51a:	61  <unknown>
     51b:	62  <unknown>
     51c:	6c 	insb	%dx, %es:(%rdi)
     51d:	65 00  <unknown>
Disassembly of section .gnu.version:
.gnu.version:
     520:	00 00 	addb	%al, (%rax)
     522:	02 00 	addb	(%rax), %al
     524:	00 00 	addb	%al, (%rax)
     526:	02 00 	addb	(%rax), %al
     528:	02 00 	addb	(%rax), %al
     52a:	03 00 	addl	(%rax), %eax
     52c:	02 00 	addb	(%rax), %al
     52e:	02 00 	addb	(%rax), %al
     530:	00 00 	addb	%al, (%rax)
     532:	02 00 	addb	(%rax), %al
     534:	02 00 	addb	(%rax), %al
     536:	02 00 	addb	(%rax), %al
     538:	02 00 	addb	(%rax), %al
     53a:	04 00 	addb	$0, %al
     53c:	00 00 	addb	%al, (%rax)
     53e:	02 00 	addb	(%rax), %al
Disassembly of section .gnu.version_r:
.gnu.version_r:
     540:	01 00 	addl	%eax, (%rax)
     542:	03 00 	addl	(%rax), %eax
     544:	01 00 	addl	%eax, (%rax)
     546:	00 00 	addb	%al, (%rax)
     548:	10 00 	adcb	%al, (%rax)
     54a:	00 00 	addb	%al, (%rax)
     54c:	00 00 	addb	%al, (%rax)
     54e:	00 00 	addb	%al, (%rax)
     550:	17  <unknown>
     551:	69 69 0d 00 00 04 00 	imull	$262144, 13(%rcx), %ebp
     558:	82  <unknown>
     559:	00 00 	addb	%al, (%rax)
     55b:	00 10 	addb	%dl, (%rax)
     55d:	00 00 	addb	%al, (%rax)
     55f:	00 14 69 	addb	%dl, (%rcx,%rbp,2)
     562:	69 0d 00 00 03 00 8c 00 00 00 	imull	$140, 196608(%rip), %ecx
     56c:	10 00 	adcb	%al, (%rax)
     56e:	00 00 	addb	%al, (%rax)
     570:	75 1a 	jne	26
     572:	69 09 00 00 02 00 	imull	$131072, (%rcx), %ecx
     578:	96 	xchgl	%esi, %eax
     579:	00 00 	addb	%al, (%rax)
     57b:	00 00 	addb	%al, (%rax)
     57d:	00 00 	addb	%al, (%rax)
     57f:	00  <unknown>
Disassembly of section .rela.dyn:
.rela.dyn:
     580:	70 5d 	jo	93 <.rela.dyn+0x5f>
     582:	20 00 	andb	%al, (%rax)
     584:	00 00 	addb	%al, (%rax)
     586:	00 00 	addb	%al, (%rax)
     588:	08 00 	orb	%al, (%rax)
     58a:	00 00 	addb	%al, (%rax)
     58c:	00 00 	addb	%al, (%rax)
     58e:	00 00 	addb	%al, (%rax)
     590:	50 	pushq	%rax
     591:	09 00 	orl	%eax, (%rax)
     593:	00 00 	addb	%al, (%rax)
     595:	00 00 	addb	%al, (%rax)
     597:	00 78 5d 	addb	%bh, 93(%rax)
     59a:	20 00 	andb	%al, (%rax)
     59c:	00 00 	addb	%al, (%rax)
     59e:	00 00 	addb	%al, (%rax)
     5a0:	08 00 	orb	%al, (%rax)
     5a2:	00 00 	addb	%al, (%rax)
     5a4:	00 00 	addb	%al, (%rax)
     5a6:	00 00 	addb	%al, (%rax)
     5a8:	10 09 	adcb	%cl, (%rcx)
     5aa:	00 00 	addb	%al, (%rax)
     5ac:	00 00 	addb	%al, (%rax)
     5ae:	00 00 	addb	%al, (%rax)
     5b0:	08 60 20 	orb	%ah, 32(%rax)
     5b3:	00 00 	addb	%al, (%rax)
     5b5:	00 00 	addb	%al, (%rax)
     5b7:	00 08 	addb	%cl, (%rax)
     5b9:	00 00 	addb	%al, (%rax)
     5bb:	00 00 	addb	%al, (%rax)
     5bd:	00 00 	addb	%al, (%rax)
     5bf:	00 08 	addb	%cl, (%rax)
     5c1:	60  <unknown>
     5c2:	20 00 	andb	%al, (%rax)
     5c4:	00 00 	addb	%al, (%rax)
     5c6:	00 00 	addb	%al, (%rax)
     5c8:	18 7b 20 	sbbb	%bh, 32(%rbx)
     5cb:	00 00 	addb	%al, (%rax)
     5cd:	00 00 	addb	%al, (%rax)
     5cf:	00 08 	addb	%cl, (%rax)
     5d1:	00 00 	addb	%al, (%rax)
     5d3:	00 00 	addb	%al, (%rax)
     5d5:	00 00 	addb	%al, (%rax)
     5d7:	00 18 	addb	%bl, (%rax)
     5d9:	51 	pushq	%rcx
     5da:	00 00 	addb	%al, (%rax)
     5dc:	00 00 	addb	%al, (%rax)
     5de:	00 00 	addb	%al, (%rax)
     5e0:	20 7b 20 	andb	%bh, 32(%rbx)
     5e3:	00 00 	addb	%al, (%rax)
     5e5:	00 00 	addb	%al, (%rax)
     5e7:	00 08 	addb	%cl, (%rax)
     5e9:	00 00 	addb	%al, (%rax)
     5eb:	00 00 	addb	%al, (%rax)
     5ed:	00 00 	addb	%al, (%rax)
     5ef:	00 18 	addb	%bl, (%rax)
     5f1:	51 	pushq	%rcx
     5f2:	00 00 	addb	%al, (%rax)
     5f4:	00 00 	addb	%al, (%rax)
     5f6:	00 00 	addb	%al, (%rax)
     5f8:	28 7b 20 	subb	%bh, 32(%rbx)
     5fb:	00 00 	addb	%al, (%rax)
     5fd:	00 00 	addb	%al, (%rax)
     5ff:	00 08 	addb	%cl, (%rax)
     601:	00 00 	addb	%al, (%rax)
     603:	00 00 	addb	%al, (%rax)
     605:	00 00 	addb	%al, (%rax)
     607:	00 20 	addb	%ah, (%rax)
     609:	51 	pushq	%rcx
     60a:	00 00 	addb	%al, (%rax)
     60c:	00 00 	addb	%al, (%rax)
     60e:	00 00 	addb	%al, (%rax)
     610:	d8 5f 20 	fcomps	32(%rdi)
     613:	00 00 	addb	%al, (%rax)
     615:	00 00 	addb	%al, (%rax)
     617:	00 06 	addb	%al, (%rsi)
     619:	00 00 	addb	%al, (%rax)
     61b:	00 02 	addb	%al, (%rdx)
     61d:	00 00 	addb	%al, (%rax)
     61f:	00 00 	addb	%al, (%rax)
     621:	00 00 	addb	%al, (%rax)
     623:	00 00 	addb	%al, (%rax)
     625:	00 00 	addb	%al, (%rax)
     627:	00 e0 	addb	%ah, %al
     629:	5f 	popq	%rdi
     62a:	20 00 	andb	%al, (%rax)
     62c:	00 00 	addb	%al, (%rax)
     62e:	00 00 	addb	%al, (%rax)
     630:	06  <unknown>
     631:	00 00 	addb	%al, (%rax)
     633:	00 07 	addb	%al, (%rdi)
     635:	00 00 	addb	%al, (%rax)
     637:	00 00 	addb	%al, (%rax)
     639:	00 00 	addb	%al, (%rax)
     63b:	00 00 	addb	%al, (%rax)
     63d:	00 00 	addb	%al, (%rax)
     63f:	00 e8 	addb	%ch, %al
     641:	5f 	popq	%rdi
     642:	20 00 	andb	%al, (%rax)
     644:	00 00 	addb	%al, (%rax)
     646:	00 00 	addb	%al, (%rax)
     648:	06  <unknown>
     649:	00 00 	addb	%al, (%rax)
     64b:	00 08 	addb	%cl, (%rax)
     64d:	00 00 	addb	%al, (%rax)
     64f:	00 00 	addb	%al, (%rax)
     651:	00 00 	addb	%al, (%rax)
     653:	00 00 	addb	%al, (%rax)
     655:	00 00 	addb	%al, (%rax)
     657:	00 f0 	addb	%dh, %al
     659:	5f 	popq	%rdi
     65a:	20 00 	andb	%al, (%rax)
     65c:	00 00 	addb	%al, (%rax)
     65e:	00 00 	addb	%al, (%rax)
     660:	06  <unknown>
     661:	00 00 	addb	%al, (%rax)
     663:	00 0e 	addb	%cl, (%rsi)
     665:	00 00 	addb	%al, (%rax)
     667:	00 00 	addb	%al, (%rax)
     669:	00 00 	addb	%al, (%rax)
     66b:	00 00 	addb	%al, (%rax)
     66d:	00 00 	addb	%al, (%rax)
     66f:	00 f8 	addb	%bh, %al
     671:	5f 	popq	%rdi
     672:	20 00 	andb	%al, (%rax)
     674:	00 00 	addb	%al, (%rax)
     676:	00 00 	addb	%al, (%rax)
     678:	06  <unknown>
     679:	00 00 	addb	%al, (%rax)
     67b:	00 0f 	addb	%cl, (%rdi)
     67d:	00 00 	addb	%al, (%rax)
     67f:	00 00 	addb	%al, (%rax)
     681:	00 00 	addb	%al, (%rax)
     683:	00 00 	addb	%al, (%rax)
     685:	00 00 	addb	%al, (%rax)
     687:	00  <unknown>
Disassembly of section .rela.plt:
.rela.plt:
     688:	88 5f 20 	movb	%bl, 32(%rdi)
     68b:	00 00 	addb	%al, (%rax)
     68d:	00 00 	addb	%al, (%rax)
     68f:	00 07 	addb	%al, (%rdi)
     691:	00 00 	addb	%al, (%rax)
     693:	00 01 	addb	%al, (%rcx)
     695:	00 00 	addb	%al, (%rax)
     697:	00 00 	addb	%al, (%rax)
     699:	00 00 	addb	%al, (%rax)
     69b:	00 00 	addb	%al, (%rax)
     69d:	00 00 	addb	%al, (%rax)
     69f:	00 90 5f 20 00 00 	addb	%dl, 8287(%rax)
     6a5:	00 00 	addb	%al, (%rax)
     6a7:	00 07 	addb	%al, (%rdi)
     6a9:	00 00 	addb	%al, (%rax)
     6ab:	00 03 	addb	%al, (%rbx)
     6ad:	00 00 	addb	%al, (%rax)
     6af:	00 00 	addb	%al, (%rax)
     6b1:	00 00 	addb	%al, (%rax)
     6b3:	00 00 	addb	%al, (%rax)
     6b5:	00 00 	addb	%al, (%rax)
     6b7:	00 98 5f 20 00 00 	addb	%bl, 8287(%rax)
     6bd:	00 00 	addb	%al, (%rax)
     6bf:	00 07 	addb	%al, (%rdi)
     6c1:	00 00 	addb	%al, (%rax)
     6c3:	00 04 00 	addb	%al, (%rax,%rax)
     6c6:	00 00 	addb	%al, (%rax)
     6c8:	00 00 	addb	%al, (%rax)
     6ca:	00 00 	addb	%al, (%rax)
     6cc:	00 00 	addb	%al, (%rax)
     6ce:	00 00 	addb	%al, (%rax)
     6d0:	a0 5f 20 00 00 00 00 00 07 	movabsb	504403158265503839, %al
     6d9:	00 00 	addb	%al, (%rax)
     6db:	00 05 00 00 00 00 	addb	%al, (%rip)
     6e1:	00 00 	addb	%al, (%rax)
     6e3:	00 00 	addb	%al, (%rax)
     6e5:	00 00 	addb	%al, (%rax)
     6e7:	00 a8 5f 20 00 00 	addb	%ch, 8287(%rax)
     6ed:	00 00 	addb	%al, (%rax)
     6ef:	00 07 	addb	%al, (%rdi)
     6f1:	00 00 	addb	%al, (%rax)
     6f3:	00 06 	addb	%al, (%rsi)
     6f5:	00 00 	addb	%al, (%rax)
     6f7:	00 00 	addb	%al, (%rax)
     6f9:	00 00 	addb	%al, (%rax)
     6fb:	00 00 	addb	%al, (%rax)
     6fd:	00 00 	addb	%al, (%rax)
     6ff:	00 b0 5f 20 00 00 	addb	%dh, 8287(%rax)
     705:	00 00 	addb	%al, (%rax)
     707:	00 07 	addb	%al, (%rdi)
     709:	00 00 	addb	%al, (%rax)
     70b:	00 09 	addb	%cl, (%rcx)
     70d:	00 00 	addb	%al, (%rax)
     70f:	00 00 	addb	%al, (%rax)
     711:	00 00 	addb	%al, (%rax)
     713:	00 00 	addb	%al, (%rax)
     715:	00 00 	addb	%al, (%rax)
     717:	00 b8 5f 20 00 00 	addb	%bh, 8287(%rax)
     71d:	00 00 	addb	%al, (%rax)
     71f:	00 07 	addb	%al, (%rdi)
     721:	00 00 	addb	%al, (%rax)
     723:	00 0a 	addb	%cl, (%rdx)
     725:	00 00 	addb	%al, (%rax)
     727:	00 00 	addb	%al, (%rax)
     729:	00 00 	addb	%al, (%rax)
     72b:	00 00 	addb	%al, (%rax)
     72d:	00 00 	addb	%al, (%rax)
     72f:	00 c0 	addb	%al, %al
     731:	5f 	popq	%rdi
     732:	20 00 	andb	%al, (%rax)
     734:	00 00 	addb	%al, (%rax)
     736:	00 00 	addb	%al, (%rax)
     738:	07  <unknown>
     739:	00 00 	addb	%al, (%rax)
     73b:	00 0b 	addb	%cl, (%rbx)
     73d:	00 00 	addb	%al, (%rax)
     73f:	00 00 	addb	%al, (%rax)
     741:	00 00 	addb	%al, (%rax)
     743:	00 00 	addb	%al, (%rax)
     745:	00 00 	addb	%al, (%rax)
     747:	00 c8 	addb	%cl, %al
     749:	5f 	popq	%rdi
     74a:	20 00 	andb	%al, (%rax)
     74c:	00 00 	addb	%al, (%rax)
     74e:	00 00 	addb	%al, (%rax)
     750:	07  <unknown>
     751:	00 00 	addb	%al, (%rax)
     753:	00 0c 00 	addb	%cl, (%rax,%rax)
     756:	00 00 	addb	%al, (%rax)
     758:	00 00 	addb	%al, (%rax)
     75a:	00 00 	addb	%al, (%rax)
     75c:	00 00 	addb	%al, (%rax)
     75e:	00 00 	addb	%al, (%rax)
     760:	d0 5f 20 	rcrb	32(%rdi)
     763:	00 00 	addb	%al, (%rax)
     765:	00 00 	addb	%al, (%rax)
     767:	00 07 	addb	%al, (%rdi)
     769:	00 00 	addb	%al, (%rax)
     76b:	00 0d 00 00 00 00 	addb	%cl, (%rip)
     771:	00 00 	addb	%al, (%rax)
     773:	00 00 	addb	%al, (%rax)
     775:	00 00 	addb	%al, (%rax)
     777:	00  <unknown>
Disassembly of section .init:
.init:
     778:	48 83 ec 08 	subq	$8, %rsp
     77c:	48 8b 05 65 58 20 00 	movq	2119781(%rip), %rax
     783:	48 85 c0 	testq	%rax, %rax
     786:	74 02 	je	2 <.init+0x12>
     788:	ff d0 	callq	*%rax
     78a:	48 83 c4 08 	addq	$8, %rsp
     78e:	c3 	retq
Disassembly of section .plt:
.plt:
     790:	ff 35 e2 57 20 00 	pushq	2119650(%rip)
     796:	ff 25 e4 57 20 00 	jmpq	*2119652(%rip)
     79c:	0f 1f 40 00 	nopl	(%rax)
     7a0:	ff 25 e2 57 20 00 	jmpq	*2119650(%rip)
     7a6:	68 00 00 00 00 	pushq	$0
     7ab:	e9 e0 ff ff ff 	jmp	-32 <.plt>
     7b0:	ff 25 da 57 20 00 	jmpq	*2119642(%rip)
     7b6:	68 01 00 00 00 	pushq	$1
     7bb:	e9 d0 ff ff ff 	jmp	-48 <.plt>
     7c0:	ff 25 d2 57 20 00 	jmpq	*2119634(%rip)
     7c6:	68 02 00 00 00 	pushq	$2
     7cb:	e9 c0 ff ff ff 	jmp	-64 <.plt>
     7d0:	ff 25 ca 57 20 00 	jmpq	*2119626(%rip)
     7d6:	68 03 00 00 00 	pushq	$3
     7db:	e9 b0 ff ff ff 	jmp	-80 <.plt>
     7e0:	ff 25 c2 57 20 00 	jmpq	*2119618(%rip)
     7e6:	68 04 00 00 00 	pushq	$4
     7eb:	e9 a0 ff ff ff 	jmp	-96 <.plt>
     7f0:	ff 25 ba 57 20 00 	jmpq	*2119610(%rip)
     7f6:	68 05 00 00 00 	pushq	$5
     7fb:	e9 90 ff ff ff 	jmp	-112 <.plt>
     800:	ff 25 b2 57 20 00 	jmpq	*2119602(%rip)
     806:	68 06 00 00 00 	pushq	$6
     80b:	e9 80 ff ff ff 	jmp	-128 <.plt>
     810:	ff 25 aa 57 20 00 	jmpq	*2119594(%rip)
     816:	68 07 00 00 00 	pushq	$7
     81b:	e9 70 ff ff ff 	jmp	-144 <.plt>
     820:	ff 25 a2 57 20 00 	jmpq	*2119586(%rip)
     826:	68 08 00 00 00 	pushq	$8
     82b:	e9 60 ff ff ff 	jmp	-160 <.plt>
     830:	ff 25 9a 57 20 00 	jmpq	*2119578(%rip)
     836:	68 09 00 00 00 	pushq	$9
     83b:	e9 50 ff ff ff 	jmp	-176 <.plt>
Disassembly of section .plt.got:
.plt.got:
     840:	ff 25 b2 57 20 00 	jmpq	*2119602(%rip)
     846:	66 90 	nop
Disassembly of section .text:
.text:
     850:	31 ed 	xorl	%ebp, %ebp
     852:	49 89 d1 	movq	%rdx, %r9
     855:	5e 	popq	%rsi
     856:	48 89 e2 	movq	%rsp, %rdx
     859:	48 83 e4 f0 	andq	$-16, %rsp
     85d:	50 	pushq	%rax
     85e:	54 	pushq	%rsp
     85f:	4c 8d 05 9a 48 00 00 	leaq	18586(%rip), %r8
     866:	48 8d 0d 23 48 00 00 	leaq	18467(%rip), %rcx
     86d:	48 8d 3d 96 25 00 00 	leaq	9622(%rip), %rdi
     874:	ff 15 66 57 20 00 	callq	*2119526(%rip)
     87a:	f4 	hlt
     87b:	0f 1f 44 00 00 	nopl	(%rax,%rax)
     880:	48 8d 3d a9 72 20 00 	leaq	2126505(%rip), %rdi
     887:	55 	pushq	%rbp
     888:	48 8d 05 a1 72 20 00 	leaq	2126497(%rip), %rax
     88f:	48 39 f8 	cmpq	%rdi, %rax
     892:	48 89 e5 	movq	%rsp, %rbp
     895:	74 19 	je	25 <.text+0x60>
     897:	48 8b 05 3a 57 20 00 	movq	2119482(%rip), %rax
     89e:	48 85 c0 	testq	%rax, %rax
     8a1:	74 0d 	je	13 <.text+0x60>
     8a3:	5d 	popq	%rbp
     8a4:	ff e0 	jmpq	*%rax
     8a6:	66 2e 0f 1f 84 00 00 00 00 00 	nopw	%cs:(%rax,%rax)
     8b0:	5d 	popq	%rbp
     8b1:	c3 	retq
     8b2:	0f 1f 40 00 	nopl	(%rax)
     8b6:	66 2e 0f 1f 84 00 00 00 00 00 	nopw	%cs:(%rax,%rax)
     8c0:	48 8d 3d 69 72 20 00 	leaq	2126441(%rip), %rdi
     8c7:	48 8d 35 62 72 20 00 	leaq	2126434(%rip), %rsi
     8ce:	55 	pushq	%rbp
     8cf:	48 29 fe 	subq	%rdi, %rsi
     8d2:	48 89 e5 	movq	%rsp, %rbp
     8d5:	48 c1 fe 03 	sarq	$3, %rsi
     8d9:	48 89 f0 	movq	%rsi, %rax
     8dc:	48 c1 e8 3f 	shrq	$63, %rax
     8e0:	48 01 c6 	addq	%rax, %rsi
     8e3:	48 d1 fe 	sarq	%rsi
     8e6:	74 18 	je	24 <.text+0xb0>
     8e8:	48 8b 05 01 57 20 00 	movq	2119425(%rip), %rax
     8ef:	48 85 c0 	testq	%rax, %rax
     8f2:	74 0c 	je	12 <.text+0xb0>
     8f4:	5d 	popq	%rbp
     8f5:	ff e0 	jmpq	*%rax
     8f7:	66 0f 1f 84 00 00 00 00 00 	nopw	(%rax,%rax)
     900:	5d 	popq	%rbp
     901:	c3 	retq
     902:	0f 1f 40 00 	nopl	(%rax)
     906:	66 2e 0f 1f 84 00 00 00 00 00 	nopw	%cs:(%rax,%rax)
     910:	80 3d 29 72 20 00 00 	cmpb	$0, 2126377(%rip)
     917:	75 2f 	jne	47 <.text+0xf8>
     919:	48 83 3d d7 56 20 00 00 	cmpq	$0, 2119383(%rip)
     921:	55 	pushq	%rbp
     922:	48 89 e5 	movq	%rsp, %rbp
     925:	74 0c 	je	12 <.text+0xe3>
     927:	48 8b 3d da 56 20 00 	movq	2119386(%rip), %rdi
     92e:	e8 0d ff ff ff 	callq	-243 <.plt.got>
     933:	e8 48 ff ff ff 	callq	-184 <.text+0x30>
     938:	c6 05 01 72 20 00 01 	movb	$1, 2126337(%rip)
     93f:	5d 	popq	%rbp
     940:	c3 	retq
     941:	0f 1f 80 00 00 00 00 	nopl	(%rax)
     948:	f3 c3 	rep		retq
     94a:	66 0f 1f 44 00 00 	nopw	(%rax,%rax)
     950:	55 	pushq	%rbp
     951:	48 89 e5 	movq	%rsp, %rbp
     954:	5d 	popq	%rbp
     955:	e9 66 ff ff ff 	jmp	-154 <.text+0x70>
     95a:	55 	pushq	%rbp
     95b:	48 89 e5 	movq	%rsp, %rbp
     95e:	53 	pushq	%rbx
     95f:	48 81 ec d8 02 00 00 	subq	$728, %rsp
     966:	48 89 bd 28 fd ff ff 	movq	%rdi, -728(%rbp)
     96d:	64 48 8b 04 25 28 00 00 00 	movq	%fs:40, %rax
     976:	48 89 45 e8 	movq	%rax, -24(%rbp)
     97a:	31 c0 	xorl	%eax, %eax
     97c:	c7 85 3c fd ff ff 01 00 00 00 	movl	$1, -708(%rbp)
     986:	bf 18 00 00 00 	movl	$24, %edi
     98b:	e8 70 fe ff ff 	callq	-400 <.plt+0x70>
     990:	48 89 85 58 fd ff ff 	movq	%rax, -680(%rbp)
     997:	48 8b 85 58 fd ff ff 	movq	-680(%rbp), %rax
     99e:	48 8b 95 58 fd ff ff 	movq	-680(%rbp), %rdx
     9a5:	48 89 50 08 	movq	%rdx, 8(%rax)
     9a9:	48 8b 85 58 fd ff ff 	movq	-680(%rbp), %rax
     9b0:	48 8b 95 58 fd ff ff 	movq	-680(%rbp), %rdx
     9b7:	48 89 50 10 	movq	%rdx, 16(%rax)
     9bb:	48 8b 85 58 fd ff ff 	movq	-680(%rbp), %rax
     9c2:	48 89 05 c7 71 20 00 	movq	%rax, 2126279(%rip)
     9c9:	c7 85 38 fd ff ff 00 00 00 00 	movl	$0, -712(%rbp)
     9d3:	e9 9c 00 00 00 	jmp	156 <.text+0x224>
     9d8:	bf 18 00 00 00 	movl	$24, %edi
     9dd:	e8 1e fe ff ff 	callq	-482 <.plt+0x70>
     9e2:	48 89 85 68 fd ff ff 	movq	%rax, -664(%rbp)
     9e9:	8b 85 38 fd ff ff 	movl	-712(%rbp), %eax
     9ef:	48 98 	cltq
     9f1:	89 c1 	movl	%eax, %ecx
     9f3:	48 8b 05 ae 5f 20 00 	movq	2121646(%rip), %rax
     9fa:	48 8b 15 a7 5f 20 00 	movq	2121639(%rip), %rdx
     a01:	48 01 d2 	addq	%rdx, %rdx
     a04:	48 83 ca fa 	orq	$-6, %rdx
     a08:	48 29 d0 	subq	%rdx, %rax
     a0b:	48 83 e8 04 	subq	$4, %rax
     a0f:	0f af c1 	imull	%ecx, %eax
     a12:	89 c2 	movl	%eax, %edx
     a14:	48 8b 85 68 fd ff ff 	movq	-664(%rbp), %rax
     a1b:	89 10 	movl	%edx, (%rax)
     a1d:	48 8b 05 6c 71 20 00 	movq	2126188(%rip), %rax
     a24:	48 8b 50 08 	movq	8(%rax), %rdx
     a28:	48 8b 85 68 fd ff ff 	movq	-664(%rbp), %rax
     a2f:	48 89 50 08 	movq	%rdx, 8(%rax)
     a33:	48 8b 15 56 71 20 00 	movq	2126166(%rip), %rdx
     a3a:	48 8b 85 68 fd ff ff 	movq	-664(%rbp), %rax
     a41:	48 89 50 10 	movq	%rdx, 16(%rax)
     a45:	48 8b 05 44 71 20 00 	movq	2126148(%rip), %rax
     a4c:	48 8b 40 08 	movq	8(%rax), %rax
     a50:	48 8b 95 68 fd ff ff 	movq	-664(%rbp), %rdx
     a57:	48 89 50 10 	movq	%rdx, 16(%rax)
     a5b:	48 8b 05 2e 71 20 00 	movq	2126126(%rip), %rax
     a62:	48 8b 95 68 fd ff ff 	movq	-664(%rbp), %rdx
     a69:	48 89 50 08 	movq	%rdx, 8(%rax)
     a6d:	83 85 38 fd ff ff 01 	addl	$1, -712(%rbp)
     a74:	83 bd 38 fd ff ff 01 	cmpl	$1, -712(%rbp)
     a7b:	0f 8e 57 ff ff ff 	jle	-169 <.text+0x188>
     a81:	48 8b 05 08 71 20 00 	movq	2126088(%rip), %rax
     a88:	48 8b 40 08 	movq	8(%rax), %rax
     a8c:	48 89 05 ed 70 20 00 	movq	%rax, 2126061(%rip)
     a93:	48 8b 05 e6 70 20 00 	movq	2126054(%rip), %rax
     a9a:	48 89 05 c7 70 20 00 	movq	%rax, 2126023(%rip)
     aa1:	c7 85 40 fd ff ff 01 00 00 00 	movl	$1, -704(%rbp)
     aab:	c7 85 44 fd ff ff 01 00 00 00 	movl	$1, -700(%rbp)
     ab5:	48 8d 85 80 fd ff ff 	leaq	-640(%rbp), %rax
     abc:	48 89 85 70 fd ff ff 	movq	%rax, -656(%rbp)
     ac3:	48 8d 05 76 62 20 00 	leaq	2122358(%rip), %rax
     aca:	48 89 85 78 fd ff ff 	movq	%rax, -648(%rbp)
     ad1:	48 8b 85 78 fd ff ff 	movq	-648(%rbp), %rax
     ad8:	0f b6 00 	movzbl	(%rax), %eax
     adb:	88 85 37 fd ff ff 	movb	%al, -713(%rbp)
     ae1:	80 bd 37 fd ff ff cb 	cmpb	$-53, -713(%rbp)
     ae8:	75 5c 	jne	92 <.text+0x2f6>
     aea:	48 8b 85 78 fd ff ff 	movq	-648(%rbp), %rax
     af1:	48 83 c0 01 	addq	$1, %rax
     af5:	48 89 85 78 fd ff ff 	movq	%rax, -648(%rbp)
     afc:	48 8b 0d 25 70 20 00 	movq	2125861(%rip), %rcx
     b03:	48 8b 85 78 fd ff ff 	movq	-648(%rbp), %rax
     b0a:	8b 00 	movl	(%rax), %eax
     b0c:	48 63 d0 	movslq	%eax, %rdx
     b0f:	48 8b 85 70 fd ff ff 	movq	-656(%rbp), %rax
     b16:	48 83 c0 08 	addq	$8, %rax
     b1a:	48 01 ca 	addq	%rcx, %rdx
     b1d:	48 89 10 	movq	%rdx, (%rax)
     b20:	48 8b 85 70 fd ff ff 	movq	-656(%rbp), %rax
     b27:	48 83 c0 08 	addq	$8, %rax
     b2b:	48 89 85 70 fd ff ff 	movq	%rax, -656(%rbp)
     b32:	48 8b 85 78 fd ff ff 	movq	-648(%rbp), %rax
     b39:	48 83 c0 04 	addq	$4, %rax
     b3d:	48 89 85 78 fd ff ff 	movq	%rax, -648(%rbp)
     b44:	eb 8b 	jmp	-117 <.text+0x281>
     b46:	80 bd 37 fd ff ff cd 	cmpb	$-51, -713(%rbp)
     b4d:	75 2d 	jne	45 <.text+0x32c>
     b4f:	48 8b 85 78 fd ff ff 	movq	-648(%rbp), %rax
     b56:	48 83 c0 01 	addq	$1, %rax
     b5a:	48 89 85 78 fd ff ff 	movq	%rax, -648(%rbp)
     b61:	48 8b 85 70 fd ff ff 	movq	-656(%rbp), %rax
     b68:	0f b6 10 	movzbl	(%rax), %edx
     b6b:	48 8b 85 70 fd ff ff 	movq	-656(%rbp), %rax
     b72:	0f b6 d2 	movzbl	%dl, %edx
     b75:	89 10 	movl	%edx, (%rax)
     b77:	e9 55 ff ff ff 	jmp	-171 <.text+0x281>
     b7c:	80 bd 37 fd ff ff 0d 	cmpb	$13, -713(%rbp)
     b83:	75 2b 	jne	43 <.text+0x360>
     b85:	48 8b 85 78 fd ff ff 	movq	-648(%rbp), %rax
     b8c:	48 83 c0 01 	addq	$1, %rax
     b90:	48 89 85 78 fd ff ff 	movq	%rax, -648(%rbp)
     b97:	48 8b 95 70 fd ff ff 	movq	-656(%rbp), %rdx
     b9e:	48 8b 85 70 fd ff ff 	movq	-656(%rbp), %rax
     ba5:	48 8b 12 	movq	(%rdx), %rdx
     ba8:	48 89 10 	movq	%rdx, (%rax)
     bab:	e9 21 ff ff ff 	jmp	-223 <.text+0x281>
     bb0:	80 bd 37 fd ff ff 60 	cmpb	$96, -713(%rbp)
     bb7:	75 2e 	jne	46 <.text+0x397>
     bb9:	48 8b 85 78 fd ff ff 	movq	-648(%rbp), %rax
     bc0:	48 83 c0 01 	addq	$1, %rax
     bc4:	48 89 85 78 fd ff ff 	movq	%rax, -648(%rbp)
     bcb:	48 8b 85 70 fd ff ff 	movq	-656(%rbp), %rax
     bd2:	48 8b 10 	movq	(%rax), %rdx
     bd5:	48 8b 85 70 fd ff ff 	movq	-656(%rbp), %rax
     bdc:	48 8b 12 	movq	(%rdx), %rdx
     bdf:	48 89 10 	movq	%rdx, (%rax)
     be2:	e9 ea fe ff ff 	jmp	-278 <.text+0x281>
     be7:	80 bd 37 fd ff ff 51 	cmpb	$81, -713(%rbp)
     bee:	75 57 	jne	87 <.text+0x3f7>
     bf0:	48 8b 85 78 fd ff ff 	movq	-648(%rbp), %rax
     bf7:	48 83 c0 01 	addq	$1, %rax
     bfb:	48 89 85 78 fd ff ff 	movq	%rax, -648(%rbp)
     c02:	48 8b 85 70 fd ff ff 	movq	-656(%rbp), %rax
     c09:	48 8b 10 	movq	(%rax), %rdx
     c0c:	48 8b 85 70 fd ff ff 	movq	-656(%rbp), %rax
     c13:	48 83 e8 08 	subq	$8, %rax
     c17:	48 8b 00 	movq	(%rax), %rax
     c1a:	48 39 c2 	cmpq	%rax, %rdx
     c1d:	0f 95 c1 	setne	%cl
     c20:	48 8b 85 70 fd ff ff 	movq	-656(%rbp), %rax
     c27:	48 8d 50 f8 	leaq	-8(%rax), %rdx
     c2b:	0f b6 c1 	movzbl	%cl, %eax
     c2e:	89 02 	movl	%eax, (%rdx)
     c30:	48 8b 85 70 fd ff ff 	movq	-656(%rbp), %rax
     c37:	48 83 e8 08 	subq	$8, %rax
     c3b:	48 89 85 70 fd ff ff 	movq	%rax, -656(%rbp)
     c42:	e9 8a fe ff ff 	jmp	-374 <.text+0x281>
     c47:	80 bd 37 fd ff ff 54 	cmpb	$84, -713(%rbp)
     c4e:	75 54 	jne	84 <.text+0x454>
     c50:	48 8b 85 78 fd ff ff 	movq	-648(%rbp), %rax
     c57:	48 83 c0 01 	addq	$1, %rax
     c5b:	48 89 85 78 fd ff ff 	movq	%rax, -648(%rbp)
     c62:	48 8b 85 70 fd ff ff 	movq	-656(%rbp), %rax
     c69:	48 83 e8 08 	subq	$8, %rax
     c6d:	48 8b 08 	movq	(%rax), %rcx
     c70:	48 8b 85 70 fd ff ff 	movq	-656(%rbp), %rax
     c77:	8b 00 	movl	(%rax), %eax
     c79:	48 63 d0 	movslq	%eax, %rdx
     c7c:	48 8b 85 70 fd ff ff 	movq	-656(%rbp), %rax
     c83:	48 83 e8 08 	subq	$8, %rax
     c87:	48 01 ca 	addq	%rcx, %rdx
     c8a:	48 89 10 	movq	%rdx, (%rax)
     c8d:	48 8b 85 70 fd ff ff 	movq	-656(%rbp), %rax
     c94:	48 83 e8 08 	subq	$8, %rax
     c98:	48 89 85 70 fd ff ff 	movq	%rax, -656(%rbp)
     c9f:	e9 2d fe ff ff 	jmp	-467 <.text+0x281>
     ca4:	80 bd 37 fd ff ff 35 	cmpb	$53, -713(%rbp)
     cab:	75 57 	jne	87 <.text+0x4b4>
     cad:	48 8b 85 78 fd ff ff 	movq	-648(%rbp), %rax
     cb4:	48 83 c0 01 	addq	$1, %rax
     cb8:	48 89 85 78 fd ff ff 	movq	%rax, -648(%rbp)
     cbf:	48 8b 85 70 fd ff ff 	movq	-656(%rbp), %rax
     cc6:	48 83 e8 08 	subq	$8, %rax
     cca:	48 8b 10 	movq	(%rax), %rdx
     ccd:	48 8b 85 70 fd ff ff 	movq	-656(%rbp), %rax
     cd4:	48 8b 00 	movq	(%rax), %rax
     cd7:	48 39 c2 	cmpq	%rax, %rdx
     cda:	0f 92 c1 	setb	%cl
     cdd:	48 8b 85 70 fd ff ff 	movq	-656(%rbp), %rax
     ce4:	48 8d 50 f8 	leaq	-8(%rax), %rdx
     ce8:	0f b6 c1 	movzbl	%cl, %eax
     ceb:	89 02 	movl	%eax, (%rdx)
     ced:	48 8b 85 70 fd ff ff 	movq	-656(%rbp), %rax
     cf4:	48 83 e8 08 	subq	$8, %rax
     cf8:	48 89 85 70 fd ff ff 	movq	%rax, -656(%rbp)
     cff:	e9 cd fd ff ff 	jmp	-563 <.text+0x281>
     d04:	80 bd 37 fd ff ff bb 	cmpb	$-69, -713(%rbp)
     d0b:	0f 85 fd 01 00 00 	jne	509 <.text+0x6be>
     d11:	48 8b 85 78 fd ff ff 	movq	-648(%rbp), %rax
     d18:	48 83 c0 01 	addq	$1, %rax
     d1c:	48 89 85 78 fd ff ff 	movq	%rax, -648(%rbp)
     d23:	48 8b 85 78 fd ff ff 	movq	-648(%rbp), %rax
     d2a:	8b 00 	movl	(%rax), %eax
     d2c:	83 f8 0b 	cmpl	$11, %eax
     d2f:	0f 87 c2 01 00 00 	ja	450 <.text+0x6a7>
     d35:	89 c0 	movl	%eax, %eax
     d37:	48 8d 14 85 00 00 00 00 	leaq	(,%rax,4), %rdx
     d3f:	48 8d 05 02 44 00 00 	leaq	17410(%rip), %rax
     d46:	8b 04 02 	movl	(%rdx,%rax), %eax
     d49:	48 63 d0 	movslq	%eax, %rdx
     d4c:	48 8d 05 f5 43 00 00 	leaq	17397(%rip), %rax
     d53:	48 01 d0 	addq	%rdx, %rax
     d56:	ff e0 	jmpq	*%rax
     d58:	48 8d 85 80 fe ff ff 	leaq	-384(%rbp), %rax
     d5f:	48 05 58 01 00 00 	addq	$344, %rax
     d65:	48 8b 00 	movq	(%rax), %rax
     d68:	48 89 c7 	movq	%rax, %rdi
     d6b:	b8 00 00 00 00 	movl	$0, %eax
     d70:	e8 6b fa ff ff 	callq	-1429 <.plt+0x50>
     d75:	e9 7d 01 00 00 	jmp	381 <.text+0x6a7>
     d7a:	48 8d 85 80 fe ff ff 	leaq	-384(%rbp), %rax
     d81:	48 05 04 01 00 00 	addq	$260, %rax
     d87:	48 8b 00 	movq	(%rax), %rax
     d8a:	48 8d 9d 80 fe ff ff 	leaq	-384(%rbp), %rbx
     d91:	48 81 c3 18 01 00 00 	addq	$280, %rbx
     d98:	48 89 c7 	movq	%rax, %rdi
     d9b:	e8 20 fa ff ff 	callq	-1504 <.plt+0x30>
     da0:	48 89 03 	movq	%rax, (%rbx)
     da3:	e9 4f 01 00 00 	jmp	335 <.text+0x6a7>
     da8:	48 8d 85 80 fe ff ff 	leaq	-384(%rbp), %rax
     daf:	48 05 90 00 00 00 	addq	$144, %rax
     db5:	48 8b 10 	movq	(%rax), %rdx
     db8:	48 8d 85 80 fe ff ff 	leaq	-384(%rbp), %rax
     dbf:	48 05 88 00 00 00 	addq	$136, %rax
     dc5:	48 8b 00 	movq	(%rax), %rax
     dc8:	48 89 d6 	movq	%rdx, %rsi
     dcb:	48 89 c7 	movq	%rax, %rdi
     dce:	e8 5f 23 00 00 	callq	9055 <.text+0x28e2>
     dd3:	e9 1f 01 00 00 	jmp	287 <.text+0x6a7>
     dd8:	48 8d 9d 80 fe ff ff 	leaq	-384(%rbp), %rbx
     ddf:	48 83 c3 10 	addq	$16, %rbx
     de3:	b9 00 00 00 00 	movl	$0, %ecx
     de8:	ba 01 00 00 00 	movl	$1, %edx
     ded:	be 00 00 00 00 	movl	$0, %esi
     df2:	bf 00 00 00 00 	movl	$0, %edi
     df7:	b8 00 00 00 00 	movl	$0, %eax
     dfc:	e8 0f fa ff ff 	callq	-1521 <.plt+0x80>
     e01:	48 89 03 	movq	%rax, (%rbx)
     e04:	e9 ee 00 00 00 	jmp	238 <.text+0x6a7>
     e09:	48 8d 85 80 fe ff ff 	leaq	-384(%rbp), %rax
     e10:	48 05 20 01 00 00 	addq	$288, %rax
     e16:	48 8b 00 	movq	(%rax), %rax
     e19:	48 89 c7 	movq	%rax, %rdi
     e1c:	b8 00 00 00 00 	movl	$0, %eax
     e21:	e8 ba f9 ff ff 	callq	-1606 <.plt+0x50>
     e26:	e9 cc 00 00 00 	jmp	204 <.text+0x6a7>
     e2b:	48 8d 85 80 fe ff ff 	leaq	-384(%rbp), %rax
     e32:	48 05 34 01 00 00 	addq	$308, %rax
     e38:	48 8b 00 	movq	(%rax), %rax
     e3b:	48 8d 9d 80 fe ff ff 	leaq	-384(%rbp), %rbx
     e42:	48 81 c3 48 01 00 00 	addq	$328, %rbx
     e49:	48 89 c7 	movq	%rax, %rdi
     e4c:	e8 6f f9 ff ff 	callq	-1681 <.plt+0x30>
     e51:	48 89 03 	movq	%rax, (%rbx)
     e54:	e9 9e 00 00 00 	jmp	158 <.text+0x6a7>
     e59:	48 8d 85 80 fe ff ff 	leaq	-384(%rbp), %rax
     e60:	48 83 c0 20 	addq	$32, %rax
     e64:	48 8b 10 	movq	(%rax), %rdx
     e67:	48 8d 85 80 fe ff ff 	leaq	-384(%rbp), %rax
     e6e:	48 83 c0 18 	addq	$24, %rax
     e72:	48 8b 00 	movq	(%rax), %rax
     e75:	48 8d 9d 80 fe ff ff 	leaq	-384(%rbp), %rbx
     e7c:	48 83 c3 30 	addq	$48, %rbx
     e80:	48 89 d6 	movq	%rdx, %rsi
     e83:	48 89 c7 	movq	%rax, %rdi
     e86:	e8 95 f9 ff ff 	callq	-1643 <.plt+0x90>
     e8b:	48 89 03 	movq	%rax, (%rbx)
     e8e:	eb 67 	jmp	103 <.text+0x6a7>
     e90:	48 8d 85 80 fe ff ff 	leaq	-384(%rbp), %rax
     e97:	48 83 c0 40 	addq	$64, %rax
     e9b:	48 8b 00 	movq	(%rax), %rax
     e9e:	48 8d 9d 80 fe ff ff 	leaq	-384(%rbp), %rbx
     ea5:	48 83 c3 4c 	addq	$76, %rbx
     ea9:	48 89 c7 	movq	%rax, %rdi
     eac:	e8 3f f9 ff ff 	callq	-1729 <.plt+0x60>
     eb1:	89 03 	movl	%eax, (%rbx)
     eb3:	eb 42 	jmp	66 <.text+0x6a7>
     eb5:	48 8d 85 80 fe ff ff 	leaq	-384(%rbp), %rax
     ebc:	48 05 50 01 00 00 	addq	$336, %rax
     ec2:	48 8b 00 	movq	(%rax), %rax
     ec5:	48 89 c7 	movq	%rax, %rdi
     ec8:	b8 00 00 00 00 	movl	$0, %eax
     ecd:	e8 0e f9 ff ff 	callq	-1778 <.plt+0x50>
     ed2:	eb 23 	jmp	35 <.text+0x6a7>
     ed4:	48 8d 85 80 fe ff ff 	leaq	-384(%rbp), %rax
     edb:	48 83 c0 50 	addq	$80, %rax
     edf:	48 8b 00 	movq	(%rax), %rax
     ee2:	48 89 c7 	movq	%rax, %rdi
     ee5:	e8 c6 f8 ff ff 	callq	-1850 <.plt+0x20>
     eea:	eb 0b 	jmp	11 <.text+0x6a7>
     eec:	bf 0b 00 00 00 	movl	$11, %edi
     ef1:	e8 aa f8 ff ff 	callq	-1878 <.plt+0x10>
     ef6:	90 	nop
     ef7:	48 8b 85 78 fd ff ff 	movq	-648(%rbp), %rax
     efe:	48 83 c0 04 	addq	$4, %rax
     f02:	48 89 85 78 fd ff ff 	movq	%rax, -648(%rbp)
     f09:	e9 c3 fb ff ff 	jmp	-1085 <.text+0x281>
     f0e:	80 bd 37 fd ff ff 53 	cmpb	$83, -713(%rbp)
     f15:	75 5e 	jne	94 <.text+0x725>
     f17:	48 8b 85 78 fd ff ff 	movq	-648(%rbp), %rax
     f1e:	48 83 c0 01 	addq	$1, %rax
     f22:	48 89 85 78 fd ff ff 	movq	%rax, -648(%rbp)
     f29:	48 8b 85 78 fd ff ff 	movq	-648(%rbp), %rax
     f30:	8b 00 	movl	(%rax), %eax
     f32:	85 c0 	testl	%eax, %eax
     f34:	75 16 	jne	22 <.text+0x6fc>
     f36:	48 8b 85 70 fd ff ff 	movq	-656(%rbp), %rax
     f3d:	48 8d 50 08 	leaq	8(%rax), %rdx
     f41:	48 8d 85 28 fd ff ff 	leaq	-728(%rbp), %rax
     f48:	48 89 02 	movq	%rax, (%rdx)
     f4b:	90 	nop
     f4c:	48 8b 85 70 fd ff ff 	movq	-656(%rbp), %rax
     f53:	48 83 c0 08 	addq	$8, %rax
     f57:	48 89 85 70 fd ff ff 	movq	%rax, -656(%rbp)
     f5e:	48 8b 85 78 fd ff ff 	movq	-648(%rbp), %rax
     f65:	48 83 c0 04 	addq	$4, %rax
     f69:	48 89 85 78 fd ff ff 	movq	%rax, -648(%rbp)
     f70:	e9 5c fb ff ff 	jmp	-1188 <.text+0x281>
     f75:	80 bd 37 fd ff ff 5f 	cmpb	$95, -713(%rbp)
     f7c:	75 54 	jne	84 <.text+0x782>
     f7e:	48 8b 85 78 fd ff ff 	movq	-648(%rbp), %rax
     f85:	48 83 c0 01 	addq	$1, %rax
     f89:	48 89 85 78 fd ff ff 	movq	%rax, -648(%rbp)
     f90:	48 8b 85 70 fd ff ff 	movq	-656(%rbp), %rax
     f97:	48 83 e8 08 	subq	$8, %rax
     f9b:	8b 10 	movl	(%rax), %edx
     f9d:	48 8b 85 70 fd ff ff 	movq	-656(%rbp), %rax
     fa4:	8b 00 	movl	(%rax), %eax
     fa6:	39 c2 	cmpl	%eax, %edx
     fa8:	0f 9f c1 	setg	%cl
     fab:	48 8b 85 70 fd ff ff 	movq	-656(%rbp), %rax
     fb2:	48 8d 50 f8 	leaq	-8(%rax), %rdx
     fb6:	0f b6 c1 	movzbl	%cl, %eax
     fb9:	89 02 	movl	%eax, (%rdx)
     fbb:	48 8b 85 70 fd ff ff 	movq	-656(%rbp), %rax
     fc2:	48 83 e8 08 	subq	$8, %rax
     fc6:	48 89 85 70 fd ff ff 	movq	%rax, -656(%rbp)
     fcd:	e9 ff fa ff ff 	jmp	-1281 <.text+0x281>
     fd2:	80 bd 37 fd ff ff 45 	cmpb	$69, -713(%rbp)
     fd9:	75 33 	jne	51 <.text+0x7be>
     fdb:	48 8b 85 78 fd ff ff 	movq	-648(%rbp), %rax
     fe2:	48 83 c0 01 	addq	$1, %rax
     fe6:	48 89 85 78 fd ff ff 	movq	%rax, -648(%rbp)
     fed:	48 8b 95 78 fd ff ff 	movq	-648(%rbp), %rdx
     ff4:	48 8b 85 78 fd ff ff 	movq	-648(%rbp), %rax
     ffb:	8b 00 	movl	(%rax), %eax
     ffd:	48 98 	cltq
     fff:	48 01 d0 	addq	%rdx, %rax
    1002:	48 89 85 78 fd ff ff 	movq	%rax, -648(%rbp)
    1009:	e9 c3 fa ff ff 	jmp	-1341 <.text+0x281>
    100e:	80 bd 37 fd ff ff 7f 	cmpb	$127, -713(%rbp)
    1015:	75 2e 	jne	46 <.text+0x7f5>
    1017:	48 8b 85 78 fd ff ff 	movq	-648(%rbp), %rax
    101e:	48 83 c0 01 	addq	$1, %rax
    1022:	48 89 85 78 fd ff ff 	movq	%rax, -648(%rbp)
    1029:	48 8b 85 70 fd ff ff 	movq	-656(%rbp), %rax
    1030:	48 8b 10 	movq	(%rax), %rdx
    1033:	48 8b 85 70 fd ff ff 	movq	-656(%rbp), %rax
    103a:	48 8b 12 	movq	(%rdx), %rdx
    103d:	48 89 10 	movq	%rdx, (%rax)
    1040:	e9 8c fa ff ff 	jmp	-1396 <.text+0x281>
    1045:	80 bd 37 fd ff ff 97 	cmpb	$-105, -713(%rbp)
    104c:	75 2b 	jne	43 <.text+0x829>
    104e:	48 8b 85 78 fd ff ff 	movq	-648(%rbp), %rax
    1055:	48 83 c0 01 	addq	$1, %rax
    1059:	48 89 85 78 fd ff ff 	movq	%rax, -648(%rbp)
    1060:	48 8b 85 70 fd ff ff 	movq	-656(%rbp), %rax
    1067:	48 8b 10 	movq	(%rax), %rdx
    106a:	48 8b 85 70 fd ff ff 	movq	-656(%rbp), %rax
    1071:	48 89 10 	movq	%rdx, (%rax)
    1074:	e9 58 fa ff ff 	jmp	-1448 <.text+0x281>
    1079:	80 bd 37 fd ff ff aa 	cmpb	$-86, -713(%rbp)
    1080:	75 2e 	jne	46 <.text+0x860>
    1082:	48 8b 85 78 fd ff ff 	movq	-648(%rbp), %rax
    1089:	48 83 c0 01 	addq	$1, %rax
    108d:	48 89 85 78 fd ff ff 	movq	%rax, -648(%rbp)
    1094:	48 8b 85 70 fd ff ff 	movq	-656(%rbp), %rax
    109b:	48 8b 10 	movq	(%rax), %rdx
    109e:	48 8b 85 70 fd ff ff 	movq	-656(%rbp), %rax
    10a5:	48 8b 12 	movq	(%rdx), %rdx
    10a8:	48 89 10 	movq	%rdx, (%rax)
    10ab:	e9 21 fa ff ff 	jmp	-1503 <.text+0x281>
    10b0:	80 bd 37 fd ff ff c0 	cmpb	$-64, -713(%rbp)
    10b7:	75 53 	jne	83 <.text+0x8bc>
    10b9:	48 8b 85 78 fd ff ff 	movq	-648(%rbp), %rax
    10c0:	48 83 c0 01 	addq	$1, %rax
    10c4:	48 89 85 78 fd ff ff 	movq	%rax, -648(%rbp)
    10cb:	48 8b 85 78 fd ff ff 	movq	-648(%rbp), %rax
    10d2:	48 8b 95 70 fd ff ff 	movq	-656(%rbp), %rdx
    10d9:	48 83 c2 08 	addq	$8, %rdx
    10dd:	48 8b 00 	movq	(%rax), %rax
    10e0:	48 89 02 	movq	%rax, (%rdx)
    10e3:	48 8b 85 70 fd ff ff 	movq	-656(%rbp), %rax
    10ea:	48 83 c0 08 	addq	$8, %rax
    10ee:	48 89 85 70 fd ff ff 	movq	%rax, -656(%rbp)
    10f5:	48 8b 85 78 fd ff ff 	movq	-648(%rbp), %rax
    10fc:	48 83 c0 08 	addq	$8, %rax
    1100:	48 89 85 78 fd ff ff 	movq	%rax, -648(%rbp)
    1107:	e9 c5 f9 ff ff 	jmp	-1595 <.text+0x281>
    110c:	80 bd 37 fd ff ff 66 	cmpb	$102, -713(%rbp)
    1113:	75 57 	jne	87 <.text+0x91c>
    1115:	48 8b 85 78 fd ff ff 	movq	-648(%rbp), %rax
    111c:	48 83 c0 01 	addq	$1, %rax
    1120:	48 89 85 78 fd ff ff 	movq	%rax, -648(%rbp)
    1127:	48 8b 85 70 fd ff ff 	movq	-656(%rbp), %rax
    112e:	48 8b 10 	movq	(%rax), %rdx
    1131:	48 8b 85 70 fd ff ff 	movq	-656(%rbp), %rax
    1138:	48 83 e8 08 	subq	$8, %rax
    113c:	48 8b 00 	movq	(%rax), %rax
    113f:	48 39 c2 	cmpq	%rax, %rdx
    1142:	0f 9c c1 	setl	%cl
    1145:	48 8b 85 70 fd ff ff 	movq	-656(%rbp), %rax
    114c:	48 8d 50 f8 	leaq	-8(%rax), %rdx
    1150:	0f b6 c1 	movzbl	%cl, %eax
    1153:	89 02 	movl	%eax, (%rdx)
    1155:	48 8b 85 70 fd ff ff 	movq	-656(%rbp), %rax
    115c:	48 83 e8 08 	subq	$8, %rax
    1160:	48 89 85 70 fd ff ff 	movq	%rax, -656(%rbp)
    1167:	e9 65 f9 ff ff 	jmp	-1691 <.text+0x281>
    116c:	80 bd 37 fd ff ff d6 	cmpb	$-42, -713(%rbp)
    1173:	0f 85 02 01 00 00 	jne	258 <.text+0xa2b>
    1179:	48 8b 85 78 fd ff ff 	movq	-648(%rbp), %rax
    1180:	48 83 c0 01 	addq	$1, %rax
    1184:	48 89 85 78 fd ff ff 	movq	%rax, -648(%rbp)
    118b:	48 8b 85 70 fd ff ff 	movq	-656(%rbp), %rax
    1192:	8b 00 	movl	(%rax), %eax
    1194:	89 85 48 fd ff ff 	movl	%eax, -696(%rbp)
    119a:	48 8b 85 70 fd ff ff 	movq	-656(%rbp), %rax
    11a1:	48 83 e8 08 	subq	$8, %rax
    11a5:	48 89 85 70 fd ff ff 	movq	%rax, -656(%rbp)
    11ac:	48 8b 85 78 fd ff ff 	movq	-648(%rbp), %rax
    11b3:	8b 00 	movl	(%rax), %eax
    11b5:	89 85 4c fd ff ff 	movl	%eax, -692(%rbp)
    11bb:	48 8b 85 78 fd ff ff 	movq	-648(%rbp), %rax
    11c2:	8b 40 08 	movl	8(%rax), %eax
    11c5:	89 85 50 fd ff ff 	movl	%eax, -688(%rbp)
    11cb:	48 8b 85 78 fd ff ff 	movq	-648(%rbp), %rax
    11d2:	8b 40 04 	movl	4(%rax), %eax
    11d5:	89 85 54 fd ff ff 	movl	%eax, -684(%rbp)
    11db:	48 8b 85 78 fd ff ff 	movq	-648(%rbp), %rax
    11e2:	48 83 c0 0c 	addq	$12, %rax
    11e6:	48 89 85 60 fd ff ff 	movq	%rax, -672(%rbp)
    11ed:	8b 85 48 fd ff ff 	movl	-696(%rbp), %eax
    11f3:	3b 85 4c fd ff ff 	cmpl	-692(%rbp), %eax
    11f9:	7d 1e 	jge	30 <.text+0x9c9>
    11fb:	48 8b 95 78 fd ff ff 	movq	-648(%rbp), %rdx
    1202:	8b 85 54 fd ff ff 	movl	-684(%rbp), %eax
    1208:	48 98 	cltq
    120a:	48 01 d0 	addq	%rdx, %rax
    120d:	48 89 85 78 fd ff ff 	movq	%rax, -648(%rbp)
    1214:	e9 b8 f8 ff ff 	jmp	-1864 <.text+0x281>
    1219:	8b 85 48 fd ff ff 	movl	-696(%rbp), %eax
    121f:	3b 85 50 fd ff ff 	cmpl	-688(%rbp), %eax
    1225:	7e 1e 	jle	30 <.text+0x9f5>
    1227:	48 8b 95 78 fd ff ff 	movq	-648(%rbp), %rdx
    122e:	8b 85 54 fd ff ff 	movl	-684(%rbp), %eax
    1234:	48 98 	cltq
    1236:	48 01 d0 	addq	%rdx, %rax
    1239:	48 89 85 78 fd ff ff 	movq	%rax, -648(%rbp)
    1240:	e9 8c f8 ff ff 	jmp	-1908 <.text+0x281>
    1245:	48 8b 95 78 fd ff ff 	movq	-648(%rbp), %rdx
    124c:	8b 85 48 fd ff ff 	movl	-696(%rbp), %eax
    1252:	2b 85 4c fd ff ff 	subl	-692(%rbp), %eax
    1258:	c1 e0 02 	shll	$2, %eax
    125b:	48 63 c8 	movslq	%eax, %rcx
    125e:	48 8b 85 60 fd ff ff 	movq	-672(%rbp), %rax
    1265:	48 01 c8 	addq	%rcx, %rax
    1268:	8b 00 	movl	(%rax), %eax
    126a:	48 98 	cltq
    126c:	48 01 d0 	addq	%rdx, %rax
    126f:	48 89 85 78 fd ff ff 	movq	%rax, -648(%rbp)
    1276:	e9 56 f8 ff ff 	jmp	-1962 <.text+0x281>
    127b:	80 bd 37 fd ff ff 19 	cmpb	$25, -713(%rbp)
    1282:	75 52 	jne	82 <.text+0xa86>
    1284:	48 8b 85 78 fd ff ff 	movq	-648(%rbp), %rax
    128b:	48 83 c0 01 	addq	$1, %rax
    128f:	48 89 85 78 fd ff ff 	movq	%rax, -648(%rbp)
    1296:	48 8b 85 70 fd ff ff 	movq	-656(%rbp), %rax
    129d:	48 8b 08 	movq	(%rax), %rcx
    12a0:	48 8b 85 70 fd ff ff 	movq	-656(%rbp), %rax
    12a7:	48 83 e8 08 	subq	$8, %rax
    12ab:	48 8b 10 	movq	(%rax), %rdx
    12ae:	48 8b 85 70 fd ff ff 	movq	-656(%rbp), %rax
    12b5:	48 83 e8 08 	subq	$8, %rax
    12b9:	48 01 ca 	addq	%rcx, %rdx
    12bc:	48 89 10 	movq	%rdx, (%rax)
    12bf:	48 8b 85 70 fd ff ff 	movq	-656(%rbp), %rax
    12c6:	48 83 e8 08 	subq	$8, %rax
    12ca:	48 89 85 70 fd ff ff 	movq	%rax, -656(%rbp)
    12d1:	e9 fb f7 ff ff 	jmp	-2053 <.text+0x281>
    12d6:	80 bd 37 fd ff ff 72 	cmpb	$114, -713(%rbp)
    12dd:	75 51 	jne	81 <.text+0xae0>
    12df:	48 8b 85 78 fd ff ff 	movq	-648(%rbp), %rax
    12e6:	48 83 c0 01 	addq	$1, %rax
    12ea:	48 89 85 78 fd ff ff 	movq	%rax, -648(%rbp)
    12f1:	48 8b 85 78 fd ff ff 	movq	-648(%rbp), %rax
    12f8:	48 8b 95 70 fd ff ff 	movq	-656(%rbp), %rdx
    12ff:	48 83 c2 08 	addq	$8, %rdx
    1303:	8b 00 	movl	(%rax), %eax
    1305:	89 02 	movl	%eax, (%rdx)
    1307:	48 8b 85 70 fd ff ff 	movq	-656(%rbp), %rax
    130e:	48 83 c0 08 	addq	$8, %rax
    1312:	48 89 85 70 fd ff ff 	movq	%rax, -656(%rbp)
    1319:	48 8b 85 78 fd ff ff 	movq	-648(%rbp), %rax
    1320:	48 83 c0 04 	addq	$4, %rax
    1324:	48 89 85 78 fd ff ff 	movq	%rax, -648(%rbp)
    132b:	e9 a1 f7 ff ff 	jmp	-2143 <.text+0x281>
    1330:	80 bd 37 fd ff ff 3b 	cmpb	$59, -713(%rbp)
    1337:	75 53 	jne	83 <.text+0xb3c>
    1339:	48 8b 85 78 fd ff ff 	movq	-648(%rbp), %rax
    1340:	48 83 c0 01 	addq	$1, %rax
    1344:	48 89 85 78 fd ff ff 	movq	%rax, -648(%rbp)
    134b:	48 8b 85 70 fd ff ff 	movq	-656(%rbp), %rax
    1352:	48 83 e8 08 	subq	$8, %rax
    1356:	48 8b 08 	movq	(%rax), %rcx
    1359:	48 8b 85 70 fd ff ff 	movq	-656(%rbp), %rax
    1360:	48 8b 00 	movq	(%rax), %rax
    1363:	48 8b 95 70 fd ff ff 	movq	-656(%rbp), %rdx
    136a:	48 83 ea 08 	subq	$8, %rdx
    136e:	48 0f af c1 	imulq	%rcx, %rax
    1372:	48 89 02 	movq	%rax, (%rdx)
    1375:	48 8b 85 70 fd ff ff 	movq	-656(%rbp), %rax
    137c:	48 83 e8 08 	subq	$8, %rax
    1380:	48 89 85 70 fd ff ff 	movq	%rax, -656(%rbp)
    1387:	e9 45 f7 ff ff 	jmp	-2235 <.text+0x281>
    138c:	80 bd 37 fd ff ff 8d 	cmpb	$-115, -713(%rbp)
    1393:	75 5f 	jne	95 <.text+0xba4>
    1395:	48 8b 85 78 fd ff ff 	movq	-648(%rbp), %rax
    139c:	48 83 c0 01 	addq	$1, %rax
    13a0:	48 89 85 78 fd ff ff 	movq	%rax, -648(%rbp)
    13a7:	48 8b 85 78 fd ff ff 	movq	-648(%rbp), %rax
    13ae:	8b 00 	movl	(%rax), %eax
    13b0:	48 63 d0 	movslq	%eax, %rdx
    13b3:	48 8b 85 70 fd ff ff 	movq	-656(%rbp), %rax
    13ba:	48 83 c0 08 	addq	$8, %rax
    13be:	48 8d 8d 80 fe ff ff 	leaq	-384(%rbp), %rcx
    13c5:	48 01 ca 	addq	%rcx, %rdx
    13c8:	48 89 10 	movq	%rdx, (%rax)
    13cb:	48 8b 85 70 fd ff ff 	movq	-656(%rbp), %rax
    13d2:	48 83 c0 08 	addq	$8, %rax
    13d6:	48 89 85 70 fd ff ff 	movq	%rax, -656(%rbp)
    13dd:	48 8b 85 78 fd ff ff 	movq	-648(%rbp), %rax
    13e4:	48 83 c0 04 	addq	$4, %rax
    13e8:	48 89 85 78 fd ff ff 	movq	%rax, -648(%rbp)
    13ef:	e9 dd f6 ff ff 	jmp	-2339 <.text+0x281>
    13f4:	80 bd 37 fd ff ff 23 	cmpb	$35, -713(%rbp)
    13fb:	75 4e 	jne	78 <.text+0xbfb>
    13fd:	48 8b 85 78 fd ff ff 	movq	-648(%rbp), %rax
    1404:	48 83 c0 01 	addq	$1, %rax
    1408:	48 89 85 78 fd ff ff 	movq	%rax, -648(%rbp)
    140f:	48 8b 85 70 fd ff ff 	movq	-656(%rbp), %rax
    1416:	48 83 e8 08 	subq	$8, %rax
    141a:	8b 08 	movl	(%rax), %ecx
    141c:	48 8b 85 70 fd ff ff 	movq	-656(%rbp), %rax
    1423:	8b 10 	movl	(%rax), %edx
    1425:	48 8b 85 70 fd ff ff 	movq	-656(%rbp), %rax
    142c:	48 83 e8 08 	subq	$8, %rax
    1430:	01 ca 	addl	%ecx, %edx
    1432:	89 10 	movl	%edx, (%rax)
    1434:	48 8b 85 70 fd ff ff 	movq	-656(%rbp), %rax
    143b:	48 83 e8 08 	subq	$8, %rax
    143f:	48 89 85 70 fd ff ff 	movq	%rax, -656(%rbp)
    1446:	e9 86 f6 ff ff 	jmp	-2426 <.text+0x281>
    144b:	80 bd 37 fd ff ff 38 	cmpb	$56, -713(%rbp)
    1452:	75 44 	jne	68 <.text+0xc48>
    1454:	48 8b 85 78 fd ff ff 	movq	-648(%rbp), %rax
    145b:	48 83 c0 01 	addq	$1, %rax
    145f:	48 89 85 78 fd ff ff 	movq	%rax, -648(%rbp)
    1466:	48 8b 85 70 fd ff ff 	movq	-656(%rbp), %rax
    146d:	48 8d 50 f8 	leaq	-8(%rax), %rdx
    1471:	48 8b 85 70 fd ff ff 	movq	-656(%rbp), %rax
    1478:	48 8b 00 	movq	(%rax), %rax
    147b:	48 8b 12 	movq	(%rdx), %rdx
    147e:	48 89 10 	movq	%rdx, (%rax)
    1481:	48 8b 85 70 fd ff ff 	movq	-656(%rbp), %rax
    1488:	48 83 e8 10 	subq	$16, %rax
    148c:	48 89 85 70 fd ff ff 	movq	%rax, -656(%rbp)
    1493:	e9 39 f6 ff ff 	jmp	-2503 <.text+0x281>
    1498:	80 bd 37 fd ff ff 14 	cmpb	$20, -713(%rbp)
    149f:	75 43 	jne	67 <.text+0xc94>
    14a1:	48 8b 85 78 fd ff ff 	movq	-648(%rbp), %rax
    14a8:	48 83 c0 01 	addq	$1, %rax
    14ac:	48 89 85 78 fd ff ff 	movq	%rax, -648(%rbp)
    14b3:	48 8b 95 70 fd ff ff 	movq	-656(%rbp), %rdx
    14ba:	48 8b 85 70 fd ff ff 	movq	-656(%rbp), %rax
    14c1:	48 83 e8 08 	subq	$8, %rax
    14c5:	48 8b 00 	movq	(%rax), %rax
    14c8:	0f b6 12 	movzbl	(%rdx), %edx
    14cb:	88 10 	movb	%dl, (%rax)
    14cd:	48 8b 85 70 fd ff ff 	movq	-656(%rbp), %rax
    14d4:	48 83 e8 10 	subq	$16, %rax
    14d8:	48 89 85 70 fd ff ff 	movq	%rax, -656(%rbp)
    14df:	e9 ed f5 ff ff 	jmp	-2579 <.text+0x281>
    14e4:	80 bd 37 fd ff ff 88 	cmpb	$-120, -713(%rbp)
    14eb:	75 44 	jne	68 <.text+0xce1>
    14ed:	48 8b 85 78 fd ff ff 	movq	-648(%rbp), %rax
    14f4:	48 83 c0 01 	addq	$1, %rax
    14f8:	48 89 85 78 fd ff ff 	movq	%rax, -648(%rbp)
    14ff:	48 8b 95 70 fd ff ff 	movq	-656(%rbp), %rdx
    1506:	48 8b 85 70 fd ff ff 	movq	-656(%rbp), %rax
    150d:	48 83 e8 08 	subq	$8, %rax
    1511:	48 8b 00 	movq	(%rax), %rax
    1514:	48 8b 12 	movq	(%rdx), %rdx
    1517:	48 89 10 	movq	%rdx, (%rax)
    151a:	48 8b 85 70 fd ff ff 	movq	-656(%rbp), %rax
    1521:	48 83 e8 10 	subq	$16, %rax
    1525:	48 89 85 70 fd ff ff 	movq	%rax, -656(%rbp)
    152c:	e9 a0 f5 ff ff 	jmp	-2656 <.text+0x281>
    1531:	80 bd 37 fd ff ff 39 	cmpb	$57, -713(%rbp)
    1538:	75 54 	jne	84 <.text+0xd3e>
    153a:	48 8b 85 78 fd ff ff 	movq	-648(%rbp), %rax
    1541:	48 83 c0 01 	addq	$1, %rax
    1545:	48 89 85 78 fd ff ff 	movq	%rax, -648(%rbp)
    154c:	48 8b 85 70 fd ff ff 	movq	-656(%rbp), %rax
    1553:	8b 10 	movl	(%rax), %edx
    1555:	48 8b 85 70 fd ff ff 	movq	-656(%rbp), %rax
    155c:	48 83 e8 08 	subq	$8, %rax
    1560:	8b 00 	movl	(%rax), %eax
    1562:	39 c2 	cmpl	%eax, %edx
    1564:	0f 95 c1 	setne	%cl
    1567:	48 8b 85 70 fd ff ff 	movq	-656(%rbp), %rax
    156e:	48 8d 50 f8 	leaq	-8(%rax), %rdx
    1572:	0f b6 c1 	movzbl	%cl, %eax
    1575:	89 02 	movl	%eax, (%rdx)
    1577:	48 8b 85 70 fd ff ff 	movq	-656(%rbp), %rax
    157e:	48 83 e8 08 	subq	$8, %rax
    1582:	48 89 85 70 fd ff ff 	movq	%rax, -656(%rbp)
    1589:	e9 43 f5 ff ff 	jmp	-2749 <.text+0x281>
    158e:	80 bd 37 fd ff ff 16 	cmpb	$22, -713(%rbp)
    1595:	75 53 	jne	83 <.text+0xd9a>
    1597:	48 8b 85 78 fd ff ff 	movq	-648(%rbp), %rax
    159e:	48 83 c0 01 	addq	$1, %rax
    15a2:	48 89 85 78 fd ff ff 	movq	%rax, -648(%rbp)
    15a9:	48 8b 85 78 fd ff ff 	movq	-648(%rbp), %rax
    15b0:	48 8b 95 70 fd ff ff 	movq	-656(%rbp), %rdx
    15b7:	48 83 c2 08 	addq	$8, %rdx
    15bb:	48 8b 00 	movq	(%rax), %rax
    15be:	48 89 02 	movq	%rax, (%rdx)
    15c1:	48 8b 85 70 fd ff ff 	movq	-656(%rbp), %rax
    15c8:	48 83 c0 08 	addq	$8, %rax
    15cc:	48 89 85 70 fd ff ff 	movq	%rax, -656(%rbp)
    15d3:	48 8b 85 78 fd ff ff 	movq	-648(%rbp), %rax
    15da:	48 83 c0 08 	addq	$8, %rax
    15de:	48 89 85 78 fd ff ff 	movq	%rax, -648(%rbp)
    15e5:	e9 e7 f4 ff ff 	jmp	-2841 <.text+0x281>
    15ea:	80 bd 37 fd ff ff f3 	cmpb	$-13, -713(%rbp)
    15f1:	75 2d 	jne	45 <.text+0xdd0>
    15f3:	48 8b 85 78 fd ff ff 	movq	-648(%rbp), %rax
    15fa:	48 83 c0 01 	addq	$1, %rax
    15fe:	48 89 85 78 fd ff ff 	movq	%rax, -648(%rbp)
    1605:	48 8b 85 70 fd ff ff 	movq	-656(%rbp), %rax
    160c:	8b 10 	movl	(%rax), %edx
    160e:	48 8b 85 70 fd ff ff 	movq	-656(%rbp), %rax
    1615:	48 63 d2 	movslq	%edx, %rdx
    1618:	48 89 10 	movq	%rdx, (%rax)
    161b:	e9 b1 f4 ff ff 	jmp	-2895 <.text+0x281>
    1620:	80 bd 37 fd ff ff 7c 	cmpb	$124, -713(%rbp)
    1627:	75 66 	jne	102 <.text+0xe3f>
    1629:	48 8b 85 78 fd ff ff 	movq	-648(%rbp), %rax
    1630:	48 83 c0 01 	addq	$1, %rax
    1634:	48 89 85 78 fd ff ff 	movq	%rax, -648(%rbp)
    163b:	48 8b 85 70 fd ff ff 	movq	-656(%rbp), %rax
    1642:	8b 00 	movl	(%rax), %eax
    1644:	85 c0 	testl	%eax, %eax
    1646:	74 1e 	je	30 <.text+0xe16>
    1648:	48 8b 95 78 fd ff ff 	movq	-648(%rbp), %rdx
    164f:	48 8b 85 78 fd ff ff 	movq	-648(%rbp), %rax
    1656:	8b 00 	movl	(%rax), %eax
    1658:	48 98 	cltq
    165a:	48 01 d0 	addq	%rdx, %rax
    165d:	48 89 85 78 fd ff ff 	movq	%rax, -648(%rbp)
    1664:	eb 12 	jmp	18 <.text+0xe28>
    1666:	48 8b 85 78 fd ff ff 	movq	-648(%rbp), %rax
    166d:	48 83 c0 04 	addq	$4, %rax
    1671:	48 89 85 78 fd ff ff 	movq	%rax, -648(%rbp)
    1678:	48 8b 85 70 fd ff ff 	movq	-656(%rbp), %rax
    167f:	48 83 e8 08 	subq	$8, %rax
    1683:	48 89 85 70 fd ff ff 	movq	%rax, -656(%rbp)
    168a:	e9 42 f4 ff ff 	jmp	-3006 <.text+0x281>
    168f:	80 bd 37 fd ff ff 09 	cmpb	$9, -713(%rbp)
    1696:	75 52 	jne	82 <.text+0xe9a>
    1698:	48 8b 85 78 fd ff ff 	movq	-648(%rbp), %rax
    169f:	48 83 c0 01 	addq	$1, %rax
    16a3:	48 89 85 78 fd ff ff 	movq	%rax, -648(%rbp)
    16aa:	48 8b 85 70 fd ff ff 	movq	-656(%rbp), %rax
    16b1:	48 83 e8 08 	subq	$8, %rax
    16b5:	48 8b 08 	movq	(%rax), %rcx
    16b8:	48 8b 85 70 fd ff ff 	movq	-656(%rbp), %rax
    16bf:	48 8b 10 	movq	(%rax), %rdx
    16c2:	48 8b 85 70 fd ff ff 	movq	-656(%rbp), %rax
    16c9:	48 83 e8 08 	subq	$8, %rax
    16cd:	48 01 ca 	addq	%rcx, %rdx
    16d0:	48 89 10 	movq	%rdx, (%rax)
    16d3:	48 8b 85 70 fd ff ff 	movq	-656(%rbp), %rax
    16da:	48 83 e8 08 	subq	$8, %rax
    16de:	48 89 85 70 fd ff ff 	movq	%rax, -656(%rbp)
    16e5:	e9 e7 f3 ff ff 	jmp	-3097 <.text+0x281>
    16ea:	80 bd 37 fd ff ff 1d 	cmpb	$29, -713(%rbp)
    16f1:	75 42 	jne	66 <.text+0xee5>
    16f3:	48 8b 85 78 fd ff ff 	movq	-648(%rbp), %rax
    16fa:	48 83 c0 01 	addq	$1, %rax
    16fe:	48 89 85 78 fd ff ff 	movq	%rax, -648(%rbp)
    1705:	48 8b 85 70 fd ff ff 	movq	-656(%rbp), %rax
    170c:	48 8d 50 f8 	leaq	-8(%rax), %rdx
    1710:	48 8b 85 70 fd ff ff 	movq	-656(%rbp), %rax
    1717:	48 8b 00 	movq	(%rax), %rax
    171a:	8b 12 	movl	(%rdx), %edx
    171c:	89 10 	movl	%edx, (%rax)
    171e:	48 8b 85 70 fd ff ff 	movq	-656(%rbp), %rax
    1725:	48 83 e8 10 	subq	$16, %rax
    1729:	48 89 85 70 fd ff ff 	movq	%rax, -656(%rbp)
    1730:	e9 9c f3 ff ff 	jmp	-3172 <.text+0x281>
    1735:	80 bd 37 fd ff ff 6e 	cmpb	$110, -713(%rbp)
    173c:	75 44 	jne	68 <.text+0xf32>
    173e:	48 8b 85 78 fd ff ff 	movq	-648(%rbp), %rax
    1745:	48 83 c0 01 	addq	$1, %rax
    1749:	48 89 85 78 fd ff ff 	movq	%rax, -648(%rbp)
    1750:	48 8b 85 70 fd ff ff 	movq	-656(%rbp), %rax
    1757:	48 8d 50 f8 	leaq	-8(%rax), %rdx
    175b:	48 8b 85 70 fd ff ff 	movq	-656(%rbp), %rax
    1762:	48 8b 00 	movq	(%rax), %rax
    1765:	48 8b 12 	movq	(%rdx), %rdx
    1768:	48 89 10 	movq	%rdx, (%rax)
    176b:	48 8b 85 70 fd ff ff 	movq	-656(%rbp), %rax
    1772:	48 83 e8 10 	subq	$16, %rax
    1776:	48 89 85 70 fd ff ff 	movq	%rax, -656(%rbp)
    177d:	e9 4f f3 ff ff 	jmp	-3249 <.text+0x281>
    1782:	80 bd 37 fd ff ff 17 	cmpb	$23, -713(%rbp)
    1789:	75 53 	jne	83 <.text+0xf8e>
    178b:	48 8b 85 78 fd ff ff 	movq	-648(%rbp), %rax
    1792:	48 83 c0 01 	addq	$1, %rax
    1796:	48 89 85 78 fd ff ff 	movq	%rax, -648(%rbp)
    179d:	48 8b 85 78 fd ff ff 	movq	-648(%rbp), %rax
    17a4:	48 8b 95 70 fd ff ff 	movq	-656(%rbp), %rdx
    17ab:	48 83 c2 08 	addq	$8, %rdx
    17af:	48 8b 00 	movq	(%rax), %rax
    17b2:	48 89 02 	movq	%rax, (%rdx)
    17b5:	48 8b 85 70 fd ff ff 	movq	-656(%rbp), %rax
    17bc:	48 83 c0 08 	addq	$8, %rax
    17c0:	48 89 85 70 fd ff ff 	movq	%rax, -656(%rbp)
    17c7:	48 8b 85 78 fd ff ff 	movq	-648(%rbp), %rax
    17ce:	48 83 c0 08 	addq	$8, %rax
    17d2:	48 89 85 78 fd ff ff 	movq	%rax, -648(%rbp)
    17d9:	e9 f3 f2 ff ff 	jmp	-3341 <.text+0x281>
    17de:	80 bd 37 fd ff ff 93 	cmpb	$-109, -713(%rbp)
    17e5:	75 29 	jne	41 <.text+0xfc0>
    17e7:	48 8b 85 78 fd ff ff 	movq	-648(%rbp), %rax
    17ee:	48 83 c0 01 	addq	$1, %rax
    17f2:	48 89 85 78 fd ff ff 	movq	%rax, -648(%rbp)
    17f9:	48 8b 85 70 fd ff ff 	movq	-656(%rbp), %rax
    1800:	8b 10 	movl	(%rax), %edx
    1802:	48 8b 85 70 fd ff ff 	movq	-656(%rbp), %rax
    1809:	88 10 	movb	%dl, (%rax)
    180b:	e9 c1 f2 ff ff 	jmp	-3391 <.text+0x281>
    1810:	80 bd 37 fd ff ff 86 	cmpb	$-122, -713(%rbp)
    1817:	75 2d 	jne	45 <.text+0xff6>
    1819:	48 8b 85 78 fd ff ff 	movq	-648(%rbp), %rax
    1820:	48 83 c0 01 	addq	$1, %rax
    1824:	48 89 85 78 fd ff ff 	movq	%rax, -648(%rbp)
    182b:	48 8b 85 70 fd ff ff 	movq	-656(%rbp), %rax
    1832:	48 8b 10 	movq	(%rax), %rdx
    1835:	48 8b 85 70 fd ff ff 	movq	-656(%rbp), %rax
    183c:	0f b6 12 	movzbl	(%rdx), %edx
    183f:	88 10 	movb	%dl, (%rax)
    1841:	e9 8b f2 ff ff 	jmp	-3445 <.text+0x281>
    1846:	80 bd 37 fd ff ff 65 	cmpb	$101, -713(%rbp)
    184d:	75 4e 	jne	78 <.text+0x104d>
    184f:	48 8b 85 78 fd ff ff 	movq	-648(%rbp), %rax
    1856:	48 83 c0 01 	addq	$1, %rax
    185a:	48 89 85 78 fd ff ff 	movq	%rax, -648(%rbp)
    1861:	48 8b 85 70 fd ff ff 	movq	-656(%rbp), %rax
    1868:	48 83 e8 08 	subq	$8, %rax
    186c:	8b 08 	movl	(%rax), %ecx
    186e:	48 8b 85 70 fd ff ff 	movq	-656(%rbp), %rax
    1875:	8b 10 	movl	(%rax), %edx
    1877:	48 8b 85 70 fd ff ff 	movq	-656(%rbp), %rax
    187e:	48 83 e8 08 	subq	$8, %rax
    1882:	31 ca 	xorl	%ecx, %edx
    1884:	89 10 	movl	%edx, (%rax)
    1886:	48 8b 85 70 fd ff ff 	movq	-656(%rbp), %rax
    188d:	48 83 e8 08 	subq	$8, %rax
    1891:	48 89 85 70 fd ff ff 	movq	%rax, -656(%rbp)
    1898:	e9 34 f2 ff ff 	jmp	-3532 <.text+0x281>
    189d:	80 bd 37 fd ff ff 25 	cmpb	$37, -713(%rbp)
    18a4:	75 2c 	jne	44 <.text+0x1082>
    18a6:	48 8b 85 78 fd ff ff 	movq	-648(%rbp), %rax
    18ad:	48 83 c0 01 	addq	$1, %rax
    18b1:	48 89 85 78 fd ff ff 	movq	%rax, -648(%rbp)
    18b8:	48 8b 85 70 fd ff ff 	movq	-656(%rbp), %rax
    18bf:	48 8b 10 	movq	(%rax), %rdx
    18c2:	48 8b 85 70 fd ff ff 	movq	-656(%rbp), %rax
    18c9:	8b 12 	movl	(%rdx), %edx
    18cb:	89 10 	movl	%edx, (%rax)
    18cd:	e9 ff f1 ff ff 	jmp	-3585 <.text+0x281>
    18d2:	80 bd 37 fd ff ff a3 	cmpb	$-93, -713(%rbp)
    18d9:	0f 85 f2 f1 ff ff 	jne	-3598 <.text+0x281>
    18df:	48 8b 85 78 fd ff ff 	movq	-648(%rbp), %rax
    18e6:	48 83 c0 01 	addq	$1, %rax
    18ea:	48 89 85 78 fd ff ff 	movq	%rax, -648(%rbp)
    18f1:	48 8b 85 70 fd ff ff 	movq	-656(%rbp), %rax
    18f8:	8b 00 	movl	(%rax), %eax
    18fa:	48 8b 75 e8 	movq	-24(%rbp), %rsi
    18fe:	64 48 33 34 25 28 00 00 00 	xorq	%fs:40, %rsi
    1907:	74 05 	je	5 <.text+0x10be>
    1909:	e8 c2 ee ff ff 	callq	-4414 <.plt+0x40>
    190e:	48 81 c4 d8 02 00 00 	addq	$728, %rsp
    1915:	5b 	popq	%rbx
    1916:	5d 	popq	%rbp
    1917:	c3 	retq
    1918:	55 	pushq	%rbp
    1919:	48 89 e5 	movq	%rsp, %rbp
    191c:	c6 05 3d 63 20 00 3a 	movb	$58, 2122557(%rip)
    1923:	c6 05 37 63 20 00 32 	movb	$50, 2122551(%rip)
    192a:	c6 05 31 63 20 00 2a 	movb	$42, 2122545(%rip)
    1931:	c6 05 2b 63 20 00 22 	movb	$34, 2122539(%rip)
    1938:	c6 05 25 63 20 00 1a 	movb	$26, 2122533(%rip)
    193f:	c6 05 1f 63 20 00 12 	movb	$18, 2122527(%rip)
    1946:	c6 05 19 63 20 00 0a 	movb	$10, 2122521(%rip)
    194d:	c6 05 13 63 20 00 02 	movb	$2, 2122515(%rip)
    1954:	c6 05 0d 63 20 00 3c 	movb	$60, 2122509(%rip)
    195b:	c6 05 07 63 20 00 34 	movb	$52, 2122503(%rip)
    1962:	c6 05 01 63 20 00 2c 	movb	$44, 2122497(%rip)
    1969:	c6 05 fb 62 20 00 24 	movb	$36, 2122491(%rip)
    1970:	c6 05 f5 62 20 00 1c 	movb	$28, 2122485(%rip)
    1977:	c6 05 ef 62 20 00 14 	movb	$20, 2122479(%rip)
    197e:	c6 05 e9 62 20 00 0c 	movb	$12, 2122473(%rip)
    1985:	c6 05 e3 62 20 00 04 	movb	$4, 2122467(%rip)
    198c:	c6 05 dd 62 20 00 3e 	movb	$62, 2122461(%rip)
    1993:	c6 05 d7 62 20 00 36 	movb	$54, 2122455(%rip)
    199a:	c6 05 d1 62 20 00 2e 	movb	$46, 2122449(%rip)
    19a1:	c6 05 cb 62 20 00 26 	movb	$38, 2122443(%rip)
    19a8:	c6 05 c5 62 20 00 1e 	movb	$30, 2122437(%rip)
    19af:	c6 05 bf 62 20 00 16 	movb	$22, 2122431(%rip)
    19b6:	c6 05 b9 62 20 00 0e 	movb	$14, 2122425(%rip)
    19bd:	c6 05 b3 62 20 00 06 	movb	$6, 2122419(%rip)
    19c4:	c6 05 ad 62 20 00 40 	movb	$64, 2122413(%rip)
    19cb:	c6 05 a7 62 20 00 38 	movb	$56, 2122407(%rip)
    19d2:	c6 05 a1 62 20 00 30 	movb	$48, 2122401(%rip)
    19d9:	c6 05 9b 62 20 00 28 	movb	$40, 2122395(%rip)
    19e0:	c6 05 95 62 20 00 20 	movb	$32, 2122389(%rip)
    19e7:	c6 05 8f 62 20 00 18 	movb	$24, 2122383(%rip)
    19ee:	c6 05 89 62 20 00 10 	movb	$16, 2122377(%rip)
    19f5:	c6 05 83 62 20 00 08 	movb	$8, 2122371(%rip)
    19fc:	c6 05 7d 62 20 00 39 	movb	$57, 2122365(%rip)
    1a03:	c6 05 77 62 20 00 31 	movb	$49, 2122359(%rip)
    1a0a:	c6 05 71 62 20 00 29 	movb	$41, 2122353(%rip)
    1a11:	c6 05 6b 62 20 00 21 	movb	$33, 2122347(%rip)
    1a18:	c6 05 65 62 20 00 19 	movb	$25, 2122341(%rip)
    1a1f:	c6 05 5f 62 20 00 11 	movb	$17, 2122335(%rip)
    1a26:	c6 05 59 62 20 00 09 	movb	$9, 2122329(%rip)
    1a2d:	c6 05 53 62 20 00 01 	movb	$1, 2122323(%rip)
    1a34:	c6 05 4d 62 20 00 3b 	movb	$59, 2122317(%rip)
    1a3b:	c6 05 47 62 20 00 33 	movb	$51, 2122311(%rip)
    1a42:	c6 05 41 62 20 00 2b 	movb	$43, 2122305(%rip)
    1a49:	c6 05 3b 62 20 00 23 	movb	$35, 2122299(%rip)
    1a50:	c6 05 35 62 20 00 1b 	movb	$27, 2122293(%rip)
    1a57:	c6 05 2f 62 20 00 13 	movb	$19, 2122287(%rip)
    1a5e:	c6 05 29 62 20 00 0b 	movb	$11, 2122281(%rip)
    1a65:	c6 05 23 62 20 00 03 	movb	$3, 2122275(%rip)
    1a6c:	c6 05 1d 62 20 00 3d 	movb	$61, 2122269(%rip)
    1a73:	c6 05 17 62 20 00 35 	movb	$53, 2122263(%rip)
    1a7a:	c6 05 11 62 20 00 2d 	movb	$45, 2122257(%rip)
    1a81:	c6 05 0b 62 20 00 25 	movb	$37, 2122251(%rip)
    1a88:	c6 05 05 62 20 00 1d 	movb	$29, 2122245(%rip)
    1a8f:	c6 05 ff 61 20 00 15 	movb	$21, 2122239(%rip)
    1a96:	c6 05 f9 61 20 00 0d 	movb	$13, 2122233(%rip)
    1a9d:	c6 05 f3 61 20 00 05 	movb	$5, 2122227(%rip)
    1aa4:	c6 05 ed 61 20 00 3f 	movb	$63, 2122221(%rip)
    1aab:	c6 05 e7 61 20 00 37 	movb	$55, 2122215(%rip)
    1ab2:	c6 05 e1 61 20 00 2f 	movb	$47, 2122209(%rip)
    1ab9:	c6 05 db 61 20 00 27 	movb	$39, 2122203(%rip)
    1ac0:	c6 05 d5 61 20 00 1f 	movb	$31, 2122197(%rip)
    1ac7:	c6 05 cf 61 20 00 17 	movb	$23, 2122191(%rip)
    1ace:	c6 05 c9 61 20 00 0f 	movb	$15, 2122185(%rip)
    1ad5:	c6 05 c3 61 20 00 07 	movb	$7, 2122179(%rip)
    1adc:	90 	nop
    1add:	5d 	popq	%rbp
    1ade:	c3 	retq
    1adf:	55 	pushq	%rbp
    1ae0:	48 89 e5 	movq	%rsp, %rbp
    1ae3:	c6 05 f6 61 20 00 0e 	movb	$14, 2122230(%rip)
    1aea:	c6 05 f0 61 20 00 11 	movb	$17, 2122224(%rip)
    1af1:	c6 05 ea 61 20 00 0b 	movb	$11, 2122218(%rip)
    1af8:	c6 05 e4 61 20 00 18 	movb	$24, 2122212(%rip)
    1aff:	c6 05 de 61 20 00 01 	movb	$1, 2122206(%rip)
    1b06:	c6 05 d8 61 20 00 05 	movb	$5, 2122200(%rip)
    1b0d:	c6 05 d2 61 20 00 03 	movb	$3, 2122194(%rip)
    1b14:	c6 05 cc 61 20 00 1c 	movb	$28, 2122188(%rip)
    1b1b:	c6 05 c6 61 20 00 0f 	movb	$15, 2122182(%rip)
    1b22:	c6 05 c0 61 20 00 06 	movb	$6, 2122176(%rip)
    1b29:	c6 05 ba 61 20 00 15 	movb	$21, 2122170(%rip)
    1b30:	c6 05 b4 61 20 00 0a 	movb	$10, 2122164(%rip)
    1b37:	c6 05 ae 61 20 00 17 	movb	$23, 2122158(%rip)
    1b3e:	c6 05 a8 61 20 00 13 	movb	$19, 2122152(%rip)
    1b45:	c6 05 a2 61 20 00 0c 	movb	$12, 2122146(%rip)
    1b4c:	c6 05 9c 61 20 00 04 	movb	$4, 2122140(%rip)
    1b53:	c6 05 96 61 20 00 1a 	movb	$26, 2122134(%rip)
    1b5a:	c6 05 90 61 20 00 08 	movb	$8, 2122128(%rip)
    1b61:	c6 05 8a 61 20 00 10 	movb	$16, 2122122(%rip)
    1b68:	c6 05 84 61 20 00 07 	movb	$7, 2122116(%rip)
    1b6f:	c6 05 7e 61 20 00 1b 	movb	$27, 2122110(%rip)
    1b76:	c6 05 78 61 20 00 14 	movb	$20, 2122104(%rip)
    1b7d:	c6 05 72 61 20 00 0d 	movb	$13, 2122098(%rip)
    1b84:	c6 05 6c 61 20 00 02 	movb	$2, 2122092(%rip)
    1b8b:	c6 05 66 61 20 00 29 	movb	$41, 2122086(%rip)
    1b92:	c6 05 60 61 20 00 34 	movb	$52, 2122080(%rip)
    1b99:	c6 05 5a 61 20 00 1f 	movb	$31, 2122074(%rip)
    1ba0:	c6 05 54 61 20 00 25 	movb	$37, 2122068(%rip)
    1ba7:	c6 05 4e 61 20 00 2f 	movb	$47, 2122062(%rip)
    1bae:	c6 05 48 61 20 00 37 	movb	$55, 2122056(%rip)
    1bb5:	c6 05 42 61 20 00 1e 	movb	$30, 2122050(%rip)
    1bbc:	c6 05 3c 61 20 00 28 	movb	$40, 2122044(%rip)
    1bc3:	c6 05 36 61 20 00 33 	movb	$51, 2122038(%rip)
    1bca:	c6 05 30 61 20 00 2d 	movb	$45, 2122032(%rip)
    1bd1:	c6 05 2a 61 20 00 21 	movb	$33, 2122026(%rip)
    1bd8:	c6 05 24 61 20 00 30 	movb	$48, 2122020(%rip)
    1bdf:	c6 05 1e 61 20 00 2c 	movb	$44, 2122014(%rip)
    1be6:	c6 05 18 61 20 00 31 	movb	$49, 2122008(%rip)
    1bed:	c6 05 12 61 20 00 27 	movb	$39, 2122002(%rip)
    1bf4:	c6 05 0c 61 20 00 38 	movb	$56, 2121996(%rip)
    1bfb:	c6 05 06 61 20 00 22 	movb	$34, 2121990(%rip)
    1c02:	c6 05 00 61 20 00 35 	movb	$53, 2121984(%rip)
    1c09:	c6 05 fa 60 20 00 2e 	movb	$46, 2121978(%rip)
    1c10:	c6 05 f4 60 20 00 2a 	movb	$42, 2121972(%rip)
    1c17:	c6 05 ee 60 20 00 32 	movb	$50, 2121966(%rip)
    1c1e:	c6 05 e8 60 20 00 24 	movb	$36, 2121960(%rip)
    1c25:	c6 05 e2 60 20 00 1d 	movb	$29, 2121954(%rip)
    1c2c:	c6 05 dc 60 20 00 20 	movb	$32, 2121948(%rip)
    1c33:	90 	nop
    1c34:	5d 	popq	%rbp
    1c35:	c3 	retq
    1c36:	55 	pushq	%rbp
    1c37:	48 89 e5 	movq	%rsp, %rbp
    1c3a:	c6 05 9f 5f 20 00 39 	movb	$57, 2121631(%rip)
    1c41:	c6 05 99 5f 20 00 31 	movb	$49, 2121625(%rip)
    1c48:	c6 05 93 5f 20 00 29 	movb	$41, 2121619(%rip)
    1c4f:	c6 05 8d 5f 20 00 21 	movb	$33, 2121613(%rip)
    1c56:	c6 05 87 5f 20 00 19 	movb	$25, 2121607(%rip)
    1c5d:	c6 05 81 5f 20 00 11 	movb	$17, 2121601(%rip)
    1c64:	c6 05 7b 5f 20 00 09 	movb	$9, 2121595(%rip)
    1c6b:	c6 05 75 5f 20 00 01 	movb	$1, 2121589(%rip)
    1c72:	c6 05 6f 5f 20 00 3a 	movb	$58, 2121583(%rip)
    1c79:	c6 05 69 5f 20 00 32 	movb	$50, 2121577(%rip)
    1c80:	c6 05 63 5f 20 00 2a 	movb	$42, 2121571(%rip)
    1c87:	c6 05 5d 5f 20 00 22 	movb	$34, 2121565(%rip)
    1c8e:	c6 05 57 5f 20 00 1a 	movb	$26, 2121559(%rip)
    1c95:	c6 05 51 5f 20 00 12 	movb	$18, 2121553(%rip)
    1c9c:	c6 05 4b 5f 20 00 0a 	movb	$10, 2121547(%rip)
    1ca3:	c6 05 45 5f 20 00 02 	movb	$2, 2121541(%rip)
    1caa:	c6 05 3f 5f 20 00 3b 	movb	$59, 2121535(%rip)
    1cb1:	c6 05 39 5f 20 00 33 	movb	$51, 2121529(%rip)
    1cb8:	c6 05 33 5f 20 00 2b 	movb	$43, 2121523(%rip)
    1cbf:	c6 05 2d 5f 20 00 23 	movb	$35, 2121517(%rip)
    1cc6:	c6 05 27 5f 20 00 1b 	movb	$27, 2121511(%rip)
    1ccd:	c6 05 21 5f 20 00 13 	movb	$19, 2121505(%rip)
    1cd4:	c6 05 1b 5f 20 00 0b 	movb	$11, 2121499(%rip)
    1cdb:	c6 05 15 5f 20 00 03 	movb	$3, 2121493(%rip)
    1ce2:	c6 05 0f 5f 20 00 3c 	movb	$60, 2121487(%rip)
    1ce9:	c6 05 09 5f 20 00 34 	movb	$52, 2121481(%rip)
    1cf0:	c6 05 03 5f 20 00 2c 	movb	$44, 2121475(%rip)
    1cf7:	c6 05 fd 5e 20 00 24 	movb	$36, 2121469(%rip)
    1cfe:	c6 05 f7 5e 20 00 3f 	movb	$63, 2121463(%rip)
    1d05:	c6 05 f1 5e 20 00 37 	movb	$55, 2121457(%rip)
    1d0c:	c6 05 eb 5e 20 00 2f 	movb	$47, 2121451(%rip)
    1d13:	c6 05 e5 5e 20 00 27 	movb	$39, 2121445(%rip)
    1d1a:	c6 05 df 5e 20 00 1f 	movb	$31, 2121439(%rip)
    1d21:	c6 05 d9 5e 20 00 17 	movb	$23, 2121433(%rip)
    1d28:	c6 05 d3 5e 20 00 0f 	movb	$15, 2121427(%rip)
    1d2f:	c6 05 cd 5e 20 00 07 	movb	$7, 2121421(%rip)
    1d36:	c6 05 c7 5e 20 00 3e 	movb	$62, 2121415(%rip)
    1d3d:	c6 05 c1 5e 20 00 36 	movb	$54, 2121409(%rip)
    1d44:	c6 05 bb 5e 20 00 2e 	movb	$46, 2121403(%rip)
    1d4b:	c6 05 b5 5e 20 00 26 	movb	$38, 2121397(%rip)
    1d52:	c6 05 af 5e 20 00 1e 	movb	$30, 2121391(%rip)
    1d59:	c6 05 a9 5e 20 00 16 	movb	$22, 2121385(%rip)
    1d60:	c6 05 a3 5e 20 00 0e 	movb	$14, 2121379(%rip)
    1d67:	c6 05 9d 5e 20 00 06 	movb	$6, 2121373(%rip)
    1d6e:	c6 05 97 5e 20 00 3d 	movb	$61, 2121367(%rip)
    1d75:	c6 05 91 5e 20 00 35 	movb	$53, 2121361(%rip)
    1d7c:	c6 05 8b 5e 20 00 2d 	movb	$45, 2121355(%rip)
    1d83:	c6 05 85 5e 20 00 25 	movb	$37, 2121349(%rip)
    1d8a:	c6 05 7f 5e 20 00 1d 	movb	$29, 2121343(%rip)
    1d91:	c6 05 79 5e 20 00 15 	movb	$21, 2121337(%rip)
    1d98:	c6 05 73 5e 20 00 0d 	movb	$13, 2121331(%rip)
    1d9f:	c6 05 6d 5e 20 00 05 	movb	$5, 2121325(%rip)
    1da6:	c6 05 67 5e 20 00 1c 	movb	$28, 2121319(%rip)
    1dad:	c6 05 61 5e 20 00 14 	movb	$20, 2121313(%rip)
    1db4:	c6 05 5b 5e 20 00 0c 	movb	$12, 2121307(%rip)
    1dbb:	c6 05 55 5e 20 00 04 	movb	$4, 2121301(%rip)
    1dc2:	90 	nop
    1dc3:	5d 	popq	%rbp
    1dc4:	c3 	retq
    1dc5:	55 	pushq	%rbp
    1dc6:	48 89 e5 	movq	%rsp, %rbp
    1dc9:	c6 05 70 5f 20 00 0e 	movb	$14, 2121584(%rip)
    1dd0:	c6 05 6a 5f 20 00 04 	movb	$4, 2121578(%rip)
    1dd7:	c6 05 64 5f 20 00 0d 	movb	$13, 2121572(%rip)
    1dde:	c6 05 5e 5f 20 00 01 	movb	$1, 2121566(%rip)
    1de5:	c6 05 58 5f 20 00 02 	movb	$2, 2121560(%rip)
    1dec:	c6 05 52 5f 20 00 0f 	movb	$15, 2121554(%rip)
    1df3:	c6 05 4c 5f 20 00 0b 	movb	$11, 2121548(%rip)
    1dfa:	c6 05 46 5f 20 00 08 	movb	$8, 2121542(%rip)
    1e01:	c6 05 40 5f 20 00 03 	movb	$3, 2121536(%rip)
    1e08:	c6 05 3a 5f 20 00 0a 	movb	$10, 2121530(%rip)
    1e0f:	c6 05 34 5f 20 00 06 	movb	$6, 2121524(%rip)
    1e16:	c6 05 2e 5f 20 00 0c 	movb	$12, 2121518(%rip)
    1e1d:	c6 05 28 5f 20 00 05 	movb	$5, 2121512(%rip)
    1e24:	c6 05 22 5f 20 00 09 	movb	$9, 2121506(%rip)
    1e2b:	c6 05 1c 5f 20 00 00 	movb	$0, 2121500(%rip)
    1e32:	c6 05 16 5f 20 00 07 	movb	$7, 2121494(%rip)
    1e39:	c6 05 10 5f 20 00 00 	movb	$0, 2121488(%rip)
    1e40:	c6 05 0a 5f 20 00 0f 	movb	$15, 2121482(%rip)
    1e47:	c6 05 04 5f 20 00 07 	movb	$7, 2121476(%rip)
    1e4e:	c6 05 fe 5e 20 00 04 	movb	$4, 2121470(%rip)
    1e55:	c6 05 f8 5e 20 00 0e 	movb	$14, 2121464(%rip)
    1e5c:	c6 05 f2 5e 20 00 02 	movb	$2, 2121458(%rip)
    1e63:	c6 05 ec 5e 20 00 0d 	movb	$13, 2121452(%rip)
    1e6a:	c6 05 e6 5e 20 00 01 	movb	$1, 2121446(%rip)
    1e71:	c6 05 e0 5e 20 00 0a 	movb	$10, 2121440(%rip)
    1e78:	c6 05 da 5e 20 00 06 	movb	$6, 2121434(%rip)
    1e7f:	c6 05 d4 5e 20 00 0c 	movb	$12, 2121428(%rip)
    1e86:	c6 05 ce 5e 20 00 0b 	movb	$11, 2121422(%rip)
    1e8d:	c6 05 c8 5e 20 00 09 	movb	$9, 2121416(%rip)
    1e94:	c6 05 c2 5e 20 00 05 	movb	$5, 2121410(%rip)
    1e9b:	c6 05 bc 5e 20 00 03 	movb	$3, 2121404(%rip)
    1ea2:	c6 05 b6 5e 20 00 08 	movb	$8, 2121398(%rip)
    1ea9:	c6 05 b0 5e 20 00 04 	movb	$4, 2121392(%rip)
    1eb0:	c6 05 aa 5e 20 00 01 	movb	$1, 2121386(%rip)
    1eb7:	c6 05 a4 5e 20 00 0e 	movb	$14, 2121380(%rip)
    1ebe:	c6 05 9e 5e 20 00 08 	movb	$8, 2121374(%rip)
    1ec5:	c6 05 98 5e 20 00 0d 	movb	$13, 2121368(%rip)
    1ecc:	c6 05 92 5e 20 00 06 	movb	$6, 2121362(%rip)
    1ed3:	c6 05 8c 5e 20 00 02 	movb	$2, 2121356(%rip)
    1eda:	c6 05 86 5e 20 00 0b 	movb	$11, 2121350(%rip)
    1ee1:	c6 05 80 5e 20 00 0f 	movb	$15, 2121344(%rip)
    1ee8:	c6 05 7a 5e 20 00 0c 	movb	$12, 2121338(%rip)
    1eef:	c6 05 74 5e 20 00 09 	movb	$9, 2121332(%rip)
    1ef6:	c6 05 6e 5e 20 00 07 	movb	$7, 2121326(%rip)
    1efd:	c6 05 68 5e 20 00 03 	movb	$3, 2121320(%rip)
    1f04:	c6 05 62 5e 20 00 0a 	movb	$10, 2121314(%rip)
    1f0b:	c6 05 5c 5e 20 00 05 	movb	$5, 2121308(%rip)
    1f12:	c6 05 56 5e 20 00 00 	movb	$0, 2121302(%rip)
    1f19:	c6 05 50 5e 20 00 0f 	movb	$15, 2121296(%rip)
    1f20:	c6 05 4a 5e 20 00 0c 	movb	$12, 2121290(%rip)
    1f27:	c6 05 44 5e 20 00 08 	movb	$8, 2121284(%rip)
    1f2e:	c6 05 3e 5e 20 00 02 	movb	$2, 2121278(%rip)
    1f35:	c6 05 38 5e 20 00 04 	movb	$4, 2121272(%rip)
    1f3c:	c6 05 32 5e 20 00 09 	movb	$9, 2121266(%rip)
    1f43:	c6 05 2c 5e 20 00 01 	movb	$1, 2121260(%rip)
    1f4a:	c6 05 26 5e 20 00 07 	movb	$7, 2121254(%rip)
    1f51:	c6 05 20 5e 20 00 05 	movb	$5, 2121248(%rip)
    1f58:	c6 05 1a 5e 20 00 0b 	movb	$11, 2121242(%rip)
    1f5f:	c6 05 14 5e 20 00 03 	movb	$3, 2121236(%rip)
    1f66:	c6 05 0e 5e 20 00 0e 	movb	$14, 2121230(%rip)
    1f6d:	c6 05 08 5e 20 00 0a 	movb	$10, 2121224(%rip)
    1f74:	c6 05 02 5e 20 00 00 	movb	$0, 2121218(%rip)
    1f7b:	c6 05 fc 5d 20 00 06 	movb	$6, 2121212(%rip)
    1f82:	c6 05 f6 5d 20 00 0d 	movb	$13, 2121206(%rip)
    1f89:	c6 05 f0 5d 20 00 0f 	movb	$15, 2121200(%rip)
    1f90:	c6 05 ea 5d 20 00 01 	movb	$1, 2121194(%rip)
    1f97:	c6 05 e4 5d 20 00 08 	movb	$8, 2121188(%rip)
    1f9e:	c6 05 de 5d 20 00 0e 	movb	$14, 2121182(%rip)
    1fa5:	c6 05 d8 5d 20 00 06 	movb	$6, 2121176(%rip)
    1fac:	c6 05 d2 5d 20 00 0b 	movb	$11, 2121170(%rip)
    1fb3:	c6 05 cc 5d 20 00 03 	movb	$3, 2121164(%rip)
    1fba:	c6 05 c6 5d 20 00 04 	movb	$4, 2121158(%rip)
    1fc1:	c6 05 c0 5d 20 00 09 	movb	$9, 2121152(%rip)
    1fc8:	c6 05 ba 5d 20 00 07 	movb	$7, 2121146(%rip)
    1fcf:	c6 05 b4 5d 20 00 02 	movb	$2, 2121140(%rip)
    1fd6:	c6 05 ae 5d 20 00 0d 	movb	$13, 2121134(%rip)
    1fdd:	c6 05 a8 5d 20 00 0c 	movb	$12, 2121128(%rip)
    1fe4:	c6 05 a2 5d 20 00 00 	movb	$0, 2121122(%rip)
    1feb:	c6 05 9c 5d 20 00 05 	movb	$5, 2121116(%rip)
    1ff2:	c6 05 96 5d 20 00 0a 	movb	$10, 2121110(%rip)
    1ff9:	c6 05 90 5d 20 00 03 	movb	$3, 2121104(%rip)
    2000:	c6 05 8a 5d 20 00 0d 	movb	$13, 2121098(%rip)
    2007:	c6 05 84 5d 20 00 04 	movb	$4, 2121092(%rip)
    200e:	c6 05 7e 5d 20 00 07 	movb	$7, 2121086(%rip)
    2015:	c6 05 78 5d 20 00 0f 	movb	$15, 2121080(%rip)
    201c:	c6 05 72 5d 20 00 02 	movb	$2, 2121074(%rip)
    2023:	c6 05 6c 5d 20 00 08 	movb	$8, 2121068(%rip)
    202a:	c6 05 66 5d 20 00 0e 	movb	$14, 2121062(%rip)
    2031:	c6 05 60 5d 20 00 0c 	movb	$12, 2121056(%rip)
    2038:	c6 05 5a 5d 20 00 00 	movb	$0, 2121050(%rip)
    203f:	c6 05 54 5d 20 00 01 	movb	$1, 2121044(%rip)
    2046:	c6 05 4e 5d 20 00 0a 	movb	$10, 2121038(%rip)
    204d:	c6 05 48 5d 20 00 06 	movb	$6, 2121032(%rip)
    2054:	c6 05 42 5d 20 00 09 	movb	$9, 2121026(%rip)
    205b:	c6 05 3c 5d 20 00 0b 	movb	$11, 2121020(%rip)
    2062:	c6 05 36 5d 20 00 05 	movb	$5, 2121014(%rip)
    2069:	c6 05 30 5d 20 00 00 	movb	$0, 2121008(%rip)
    2070:	c6 05 2a 5d 20 00 0e 	movb	$14, 2121002(%rip)
    2077:	c6 05 24 5d 20 00 07 	movb	$7, 2120996(%rip)
    207e:	c6 05 1e 5d 20 00 0b 	movb	$11, 2120990(%rip)
    2085:	c6 05 18 5d 20 00 0a 	movb	$10, 2120984(%rip)
    208c:	c6 05 12 5d 20 00 04 	movb	$4, 2120978(%rip)
    2093:	c6 05 0c 5d 20 00 0d 	movb	$13, 2120972(%rip)
    209a:	c6 05 06 5d 20 00 01 	movb	$1, 2120966(%rip)
    20a1:	c6 05 00 5d 20 00 05 	movb	$5, 2120960(%rip)
    20a8:	c6 05 fa 5c 20 00 08 	movb	$8, 2120954(%rip)
    20af:	c6 05 f4 5c 20 00 0c 	movb	$12, 2120948(%rip)
    20b6:	c6 05 ee 5c 20 00 06 	movb	$6, 2120942(%rip)
    20bd:	c6 05 e8 5c 20 00 09 	movb	$9, 2120936(%rip)
    20c4:	c6 05 e2 5c 20 00 03 	movb	$3, 2120930(%rip)
    20cb:	c6 05 dc 5c 20 00 02 	movb	$2, 2120924(%rip)
    20d2:	c6 05 d6 5c 20 00 0f 	movb	$15, 2120918(%rip)
    20d9:	c6 05 d0 5c 20 00 0d 	movb	$13, 2120912(%rip)
    20e0:	c6 05 ca 5c 20 00 08 	movb	$8, 2120906(%rip)
    20e7:	c6 05 c4 5c 20 00 0a 	movb	$10, 2120900(%rip)
    20ee:	c6 05 be 5c 20 00 01 	movb	$1, 2120894(%rip)
    20f5:	c6 05 b8 5c 20 00 03 	movb	$3, 2120888(%rip)
    20fc:	c6 05 b2 5c 20 00 0f 	movb	$15, 2120882(%rip)
    2103:	c6 05 ac 5c 20 00 04 	movb	$4, 2120876(%rip)
    210a:	c6 05 a6 5c 20 00 02 	movb	$2, 2120870(%rip)
    2111:	c6 05 a0 5c 20 00 0b 	movb	$11, 2120864(%rip)
    2118:	c6 05 9a 5c 20 00 06 	movb	$6, 2120858(%rip)
    211f:	c6 05 94 5c 20 00 07 	movb	$7, 2120852(%rip)
    2126:	c6 05 8e 5c 20 00 0c 	movb	$12, 2120846(%rip)
    212d:	c6 05 88 5c 20 00 00 	movb	$0, 2120840(%rip)
    2134:	c6 05 82 5c 20 00 05 	movb	$5, 2120834(%rip)
    213b:	c6 05 7c 5c 20 00 0e 	movb	$14, 2120828(%rip)
    2142:	c6 05 76 5c 20 00 09 	movb	$9, 2120822(%rip)
    2149:	c6 05 70 5c 20 00 0a 	movb	$10, 2120816(%rip)
    2150:	c6 05 6a 5c 20 00 00 	movb	$0, 2120810(%rip)
    2157:	c6 05 64 5c 20 00 09 	movb	$9, 2120804(%rip)
    215e:	c6 05 5e 5c 20 00 0e 	movb	$14, 2120798(%rip)
    2165:	c6 05 58 5c 20 00 06 	movb	$6, 2120792(%rip)
    216c:	c6 05 52 5c 20 00 03 	movb	$3, 2120786(%rip)
    2173:	c6 05 4c 5c 20 00 0f 	movb	$15, 2120780(%rip)
    217a:	c6 05 46 5c 20 00 05 	movb	$5, 2120774(%rip)
    2181:	c6 05 40 5c 20 00 01 	movb	$1, 2120768(%rip)
    2188:	c6 05 3a 5c 20 00 0d 	movb	$13, 2120762(%rip)
    218f:	c6 05 34 5c 20 00 0c 	movb	$12, 2120756(%rip)
    2196:	c6 05 2e 5c 20 00 07 	movb	$7, 2120750(%rip)
    219d:	c6 05 28 5c 20 00 0b 	movb	$11, 2120744(%rip)
    21a4:	c6 05 22 5c 20 00 04 	movb	$4, 2120738(%rip)
    21ab:	c6 05 1c 5c 20 00 02 	movb	$2, 2120732(%rip)
    21b2:	c6 05 16 5c 20 00 08 	movb	$8, 2120726(%rip)
    21b9:	c6 05 10 5c 20 00 0d 	movb	$13, 2120720(%rip)
    21c0:	c6 05 0a 5c 20 00 07 	movb	$7, 2120714(%rip)
    21c7:	c6 05 04 5c 20 00 00 	movb	$0, 2120708(%rip)
    21ce:	c6 05 fe 5b 20 00 09 	movb	$9, 2120702(%rip)
    21d5:	c6 05 f8 5b 20 00 03 	movb	$3, 2120696(%rip)
    21dc:	c6 05 f2 5b 20 00 04 	movb	$4, 2120690(%rip)
    21e3:	c6 05 ec 5b 20 00 06 	movb	$6, 2120684(%rip)
    21ea:	c6 05 e6 5b 20 00 0a 	movb	$10, 2120678(%rip)
    21f1:	c6 05 e0 5b 20 00 02 	movb	$2, 2120672(%rip)
    21f8:	c6 05 da 5b 20 00 08 	movb	$8, 2120666(%rip)
    21ff:	c6 05 d4 5b 20 00 05 	movb	$5, 2120660(%rip)
    2206:	c6 05 ce 5b 20 00 0e 	movb	$14, 2120654(%rip)
    220d:	c6 05 c8 5b 20 00 0c 	movb	$12, 2120648(%rip)
    2214:	c6 05 c2 5b 20 00 0b 	movb	$11, 2120642(%rip)
    221b:	c6 05 bc 5b 20 00 0f 	movb	$15, 2120636(%rip)
    2222:	c6 05 b6 5b 20 00 01 	movb	$1, 2120630(%rip)
    2229:	c6 05 b0 5b 20 00 0d 	movb	$13, 2120624(%rip)
    2230:	c6 05 aa 5b 20 00 06 	movb	$6, 2120618(%rip)
    2237:	c6 05 a4 5b 20 00 04 	movb	$4, 2120612(%rip)
    223e:	c6 05 9e 5b 20 00 09 	movb	$9, 2120606(%rip)
    2245:	c6 05 98 5b 20 00 08 	movb	$8, 2120600(%rip)
    224c:	c6 05 92 5b 20 00 0f 	movb	$15, 2120594(%rip)
    2253:	c6 05 8c 5b 20 00 03 	movb	$3, 2120588(%rip)
    225a:	c6 05 86 5b 20 00 00 	movb	$0, 2120582(%rip)
    2261:	c6 05 80 5b 20 00 0b 	movb	$11, 2120576(%rip)
    2268:	c6 05 7a 5b 20 00 01 	movb	$1, 2120570(%rip)
    226f:	c6 05 74 5b 20 00 02 	movb	$2, 2120564(%rip)
    2276:	c6 05 6e 5b 20 00 0c 	movb	$12, 2120558(%rip)
    227d:	c6 05 68 5b 20 00 05 	movb	$5, 2120552(%rip)
    2284:	c6 05 62 5b 20 00 0a 	movb	$10, 2120546(%rip)
    228b:	c6 05 5c 5b 20 00 0e 	movb	$14, 2120540(%rip)
    2292:	c6 05 56 5b 20 00 07 	movb	$7, 2120534(%rip)
    2299:	c6 05 50 5b 20 00 01 	movb	$1, 2120528(%rip)
    22a0:	c6 05 4a 5b 20 00 0a 	movb	$10, 2120522(%rip)
    22a7:	c6 05 44 5b 20 00 0d 	movb	$13, 2120516(%rip)
    22ae:	c6 05 3e 5b 20 00 00 	movb	$0, 2120510(%rip)
    22b5:	c6 05 38 5b 20 00 06 	movb	$6, 2120504(%rip)
    22bc:	c6 05 32 5b 20 00 09 	movb	$9, 2120498(%rip)
    22c3:	c6 05 2c 5b 20 00 08 	movb	$8, 2120492(%rip)
    22ca:	c6 05 26 5b 20 00 07 	movb	$7, 2120486(%rip)
    22d1:	c6 05 20 5b 20 00 04 	movb	$4, 2120480(%rip)
    22d8:	c6 05 1a 5b 20 00 0f 	movb	$15, 2120474(%rip)
    22df:	c6 05 14 5b 20 00 0e 	movb	$14, 2120468(%rip)
    22e6:	c6 05 0e 5b 20 00 03 	movb	$3, 2120462(%rip)
    22ed:	c6 05 08 5b 20 00 0b 	movb	$11, 2120456(%rip)
    22f4:	c6 05 02 5b 20 00 05 	movb	$5, 2120450(%rip)
    22fb:	c6 05 fc 5a 20 00 02 	movb	$2, 2120444(%rip)
    2302:	c6 05 f6 5a 20 00 0c 	movb	$12, 2120438(%rip)
    2309:	c6 05 f0 5a 20 00 07 	movb	$7, 2120432(%rip)
    2310:	c6 05 ea 5a 20 00 0d 	movb	$13, 2120426(%rip)
    2317:	c6 05 e4 5a 20 00 0e 	movb	$14, 2120420(%rip)
    231e:	c6 05 de 5a 20 00 03 	movb	$3, 2120414(%rip)
    2325:	c6 05 d8 5a 20 00 00 	movb	$0, 2120408(%rip)
    232c:	c6 05 d2 5a 20 00 06 	movb	$6, 2120402(%rip)
    2333:	c6 05 cc 5a 20 00 09 	movb	$9, 2120396(%rip)
    233a:	c6 05 c6 5a 20 00 0a 	movb	$10, 2120390(%rip)
    2341:	c6 05 c0 5a 20 00 01 	movb	$1, 2120384(%rip)
    2348:	c6 05 ba 5a 20 00 02 	movb	$2, 2120378(%rip)
    234f:	c6 05 b4 5a 20 00 08 	movb	$8, 2120372(%rip)
    2356:	c6 05 ae 5a 20 00 05 	movb	$5, 2120366(%rip)
    235d:	c6 05 a8 5a 20 00 0b 	movb	$11, 2120360(%rip)
    2364:	c6 05 a2 5a 20 00 0c 	movb	$12, 2120354(%rip)
    236b:	c6 05 9c 5a 20 00 04 	movb	$4, 2120348(%rip)
    2372:	c6 05 96 5a 20 00 0f 	movb	$15, 2120342(%rip)
    2379:	c6 05 90 5a 20 00 0d 	movb	$13, 2120336(%rip)
    2380:	c6 05 8a 5a 20 00 08 	movb	$8, 2120330(%rip)
    2387:	c6 05 84 5a 20 00 0b 	movb	$11, 2120324(%rip)
    238e:	c6 05 7e 5a 20 00 05 	movb	$5, 2120318(%rip)
    2395:	c6 05 78 5a 20 00 06 	movb	$6, 2120312(%rip)
    239c:	c6 05 72 5a 20 00 0f 	movb	$15, 2120306(%rip)
    23a3:	c6 05 6c 5a 20 00 00 	movb	$0, 2120300(%rip)
    23aa:	c6 05 66 5a 20 00 03 	movb	$3, 2120294(%rip)
    23b1:	c6 05 60 5a 20 00 04 	movb	$4, 2120288(%rip)
    23b8:	c6 05 5a 5a 20 00 07 	movb	$7, 2120282(%rip)
    23bf:	c6 05 54 5a 20 00 02 	movb	$2, 2120276(%rip)
    23c6:	c6 05 4e 5a 20 00 0c 	movb	$12, 2120270(%rip)
    23cd:	c6 05 48 5a 20 00 01 	movb	$1, 2120264(%rip)
    23d4:	c6 05 42 5a 20 00 0a 	movb	$10, 2120258(%rip)
    23db:	c6 05 3c 5a 20 00 0e 	movb	$14, 2120252(%rip)
    23e2:	c6 05 36 5a 20 00 09 	movb	$9, 2120246(%rip)
    23e9:	c6 05 30 5a 20 00 0a 	movb	$10, 2120240(%rip)
    23f0:	c6 05 2a 5a 20 00 06 	movb	$6, 2120234(%rip)
    23f7:	c6 05 24 5a 20 00 09 	movb	$9, 2120228(%rip)
    23fe:	c6 05 1e 5a 20 00 00 	movb	$0, 2120222(%rip)
    2405:	c6 05 18 5a 20 00 0c 	movb	$12, 2120216(%rip)
    240c:	c6 05 12 5a 20 00 0b 	movb	$11, 2120210(%rip)
    2413:	c6 05 0c 5a 20 00 07 	movb	$7, 2120204(%rip)
    241a:	c6 05 06 5a 20 00 0d 	movb	$13, 2120198(%rip)
    2421:	c6 05 00 5a 20 00 0f 	movb	$15, 2120192(%rip)
    2428:	c6 05 fa 59 20 00 01 	movb	$1, 2120186(%rip)
    242f:	c6 05 f4 59 20 00 03 	movb	$3, 2120180(%rip)
    2436:	c6 05 ee 59 20 00 0e 	movb	$14, 2120174(%rip)
    243d:	c6 05 e8 59 20 00 05 	movb	$5, 2120168(%rip)
    2444:	c6 05 e2 59 20 00 02 	movb	$2, 2120162(%rip)
    244b:	c6 05 dc 59 20 00 08 	movb	$8, 2120156(%rip)
    2452:	c6 05 d6 59 20 00 04 	movb	$4, 2120150(%rip)
    2459:	c6 05 d0 59 20 00 03 	movb	$3, 2120144(%rip)
    2460:	c6 05 ca 59 20 00 0f 	movb	$15, 2120138(%rip)
    2467:	c6 05 c4 59 20 00 00 	movb	$0, 2120132(%rip)
    246e:	c6 05 be 59 20 00 06 	movb	$6, 2120126(%rip)
    2475:	c6 05 b8 59 20 00 0a 	movb	$10, 2120120(%rip)
    247c:	c6 05 b2 59 20 00 01 	movb	$1, 2120114(%rip)
    2483:	c6 05 ac 59 20 00 0d 	movb	$13, 2120108(%rip)
    248a:	c6 05 a6 59 20 00 08 	movb	$8, 2120102(%rip)
    2491:	c6 05 a0 59 20 00 09 	movb	$9, 2120096(%rip)
    2498:	c6 05 9a 59 20 00 04 	movb	$4, 2120090(%rip)
    249f:	c6 05 94 59 20 00 05 	movb	$5, 2120084(%rip)
    24a6:	c6 05 8e 59 20 00 0b 	movb	$11, 2120078(%rip)
    24ad:	c6 05 88 59 20 00 0c 	movb	$12, 2120072(%rip)
    24b4:	c6 05 82 59 20 00 07 	movb	$7, 2120066(%rip)
    24bb:	c6 05 7c 59 20 00 02 	movb	$2, 2120060(%rip)
    24c2:	c6 05 76 59 20 00 0e 	movb	$14, 2120054(%rip)
    24c9:	c6 05 70 59 20 00 02 	movb	$2, 2120048(%rip)
    24d0:	c6 05 6a 59 20 00 0c 	movb	$12, 2120042(%rip)
    24d7:	c6 05 64 59 20 00 04 	movb	$4, 2120036(%rip)
    24de:	c6 05 5e 59 20 00 01 	movb	$1, 2120030(%rip)
    24e5:	c6 05 58 59 20 00 07 	movb	$7, 2120024(%rip)
    24ec:	c6 05 52 59 20 00 0a 	movb	$10, 2120018(%rip)
    24f3:	c6 05 4c 59 20 00 0b 	movb	$11, 2120012(%rip)
    24fa:	c6 05 46 59 20 00 06 	movb	$6, 2120006(%rip)
    2501:	c6 05 40 59 20 00 08 	movb	$8, 2120000(%rip)
    2508:	c6 05 3a 59 20 00 05 	movb	$5, 2119994(%rip)
    250f:	c6 05 34 59 20 00 03 	movb	$3, 2119988(%rip)
    2516:	c6 05 2e 59 20 00 0f 	movb	$15, 2119982(%rip)
    251d:	c6 05 28 59 20 00 0d 	movb	$13, 2119976(%rip)
    2524:	c6 05 22 59 20 00 00 	movb	$0, 2119970(%rip)
    252b:	c6 05 1c 59 20 00 0e 	movb	$14, 2119964(%rip)
    2532:	c6 05 16 59 20 00 09 	movb	$9, 2119958(%rip)
    2539:	c6 05 10 59 20 00 0e 	movb	$14, 2119952(%rip)
    2540:	c6 05 0a 59 20 00 0b 	movb	$11, 2119946(%rip)
    2547:	c6 05 04 59 20 00 02 	movb	$2, 2119940(%rip)
    254e:	c6 05 fe 58 20 00 0c 	movb	$12, 2119934(%rip)
    2555:	c6 05 f8 58 20 00 04 	movb	$4, 2119928(%rip)
    255c:	c6 05 f2 58 20 00 07 	movb	$7, 2119922(%rip)
    2563:	c6 05 ec 58 20 00 0d 	movb	$13, 2119916(%rip)
    256a:	c6 05 e6 58 20 00 01 	movb	$1, 2119910(%rip)
    2571:	c6 05 e0 58 20 00 05 	movb	$5, 2119904(%rip)
    2578:	c6 05 da 58 20 00 00 	movb	$0, 2119898(%rip)
    257f:	c6 05 d4 58 20 00 0f 	movb	$15, 2119892(%rip)
    2586:	c6 05 ce 58 20 00 0a 	movb	$10, 2119886(%rip)
    258d:	c6 05 c8 58 20 00 03 	movb	$3, 2119880(%rip)
    2594:	c6 05 c2 58 20 00 09 	movb	$9, 2119874(%rip)
    259b:	c6 05 bc 58 20 00 08 	movb	$8, 2119868(%rip)
    25a2:	c6 05 b6 58 20 00 06 	movb	$6, 2119862(%rip)
    25a9:	c6 05 b0 58 20 00 04 	movb	$4, 2119856(%rip)
    25b0:	c6 05 aa 58 20 00 02 	movb	$2, 2119850(%rip)
    25b7:	c6 05 a4 58 20 00 01 	movb	$1, 2119844(%rip)
    25be:	c6 05 9e 58 20 00 0b 	movb	$11, 2119838(%rip)
    25c5:	c6 05 98 58 20 00 0a 	movb	$10, 2119832(%rip)
    25cc:	c6 05 92 58 20 00 0d 	movb	$13, 2119826(%rip)
    25d3:	c6 05 8c 58 20 00 07 	movb	$7, 2119820(%rip)
    25da:	c6 05 86 58 20 00 08 	movb	$8, 2119814(%rip)
    25e1:	c6 05 80 58 20 00 0f 	movb	$15, 2119808(%rip)
    25e8:	c6 05 7a 58 20 00 09 	movb	$9, 2119802(%rip)
    25ef:	c6 05 74 58 20 00 0c 	movb	$12, 2119796(%rip)
    25f6:	c6 05 6e 58 20 00 05 	movb	$5, 2119790(%rip)
    25fd:	c6 05 68 58 20 00 06 	movb	$6, 2119784(%rip)
    2604:	c6 05 62 58 20 00 03 	movb	$3, 2119778(%rip)
    260b:	c6 05 5c 58 20 00 00 	movb	$0, 2119772(%rip)
    2612:	c6 05 56 58 20 00 0e 	movb	$14, 2119766(%rip)
    2619:	c6 05 50 58 20 00 0b 	movb	$11, 2119760(%rip)
    2620:	c6 05 4a 58 20 00 08 	movb	$8, 2119754(%rip)
    2627:	c6 05 44 58 20 00 0c 	movb	$12, 2119748(%rip)
    262e:	c6 05 3e 58 20 00 07 	movb	$7, 2119742(%rip)
    2635:	c6 05 38 58 20 00 01 	movb	$1, 2119736(%rip)
    263c:	c6 05 32 58 20 00 0e 	movb	$14, 2119730(%rip)
    2643:	c6 05 2c 58 20 00 02 	movb	$2, 2119724(%rip)
    264a:	c6 05 26 58 20 00 0d 	movb	$13, 2119718(%rip)
    2651:	c6 05 20 58 20 00 06 	movb	$6, 2119712(%rip)
    2658:	c6 05 1a 58 20 00 0f 	movb	$15, 2119706(%rip)
    265f:	c6 05 14 58 20 00 00 	movb	$0, 2119700(%rip)
    2666:	c6 05 0e 58 20 00 09 	movb	$9, 2119694(%rip)
    266d:	c6 05 08 58 20 00 0a 	movb	$10, 2119688(%rip)
    2674:	c6 05 02 58 20 00 04 	movb	$4, 2119682(%rip)
    267b:	c6 05 fc 57 20 00 05 	movb	$5, 2119676(%rip)
    2682:	c6 05 f6 57 20 00 03 	movb	$3, 2119670(%rip)
    2689:	c6 05 f0 57 20 00 0c 	movb	$12, 2119664(%rip)
    2690:	c6 05 ea 57 20 00 01 	movb	$1, 2119658(%rip)
    2697:	c6 05 e4 57 20 00 0a 	movb	$10, 2119652(%rip)
    269e:	c6 05 de 57 20 00 0f 	movb	$15, 2119646(%rip)
    26a5:	c6 05 d8 57 20 00 09 	movb	$9, 2119640(%rip)
    26ac:	c6 05 d2 57 20 00 02 	movb	$2, 2119634(%rip)
    26b3:	c6 05 cc 57 20 00 06 	movb	$6, 2119628(%rip)
    26ba:	c6 05 c6 57 20 00 08 	movb	$8, 2119622(%rip)
    26c1:	c6 05 c0 57 20 00 00 	movb	$0, 2119616(%rip)
    26c8:	c6 05 ba 57 20 00 0d 	movb	$13, 2119610(%rip)
    26cf:	c6 05 b4 57 20 00 03 	movb	$3, 2119604(%rip)
    26d6:	c6 05 ae 57 20 00 04 	movb	$4, 2119598(%rip)
    26dd:	c6 05 a8 57 20 00 0e 	movb	$14, 2119592(%rip)
    26e4:	c6 05 a2 57 20 00 07 	movb	$7, 2119586(%rip)
    26eb:	c6 05 9c 57 20 00 05 	movb	$5, 2119580(%rip)
    26f2:	c6 05 96 57 20 00 0b 	movb	$11, 2119574(%rip)
    26f9:	c6 05 90 57 20 00 0a 	movb	$10, 2119568(%rip)
    2700:	c6 05 8a 57 20 00 0f 	movb	$15, 2119562(%rip)
    2707:	c6 05 84 57 20 00 04 	movb	$4, 2119556(%rip)
    270e:	c6 05 7e 57 20 00 02 	movb	$2, 2119550(%rip)
    2715:	c6 05 78 57 20 00 07 	movb	$7, 2119544(%rip)
    271c:	c6 05 72 57 20 00 0c 	movb	$12, 2119538(%rip)
    2723:	c6 05 6c 57 20 00 09 	movb	$9, 2119532(%rip)
    272a:	c6 05 66 57 20 00 05 	movb	$5, 2119526(%rip)
    2731:	c6 05 60 57 20 00 06 	movb	$6, 2119520(%rip)
    2738:	c6 05 5a 57 20 00 01 	movb	$1, 2119514(%rip)
    273f:	c6 05 54 57 20 00 0d 	movb	$13, 2119508(%rip)
    2746:	c6 05 4e 57 20 00 0e 	movb	$14, 2119502(%rip)
    274d:	c6 05 48 57 20 00 00 	movb	$0, 2119496(%rip)
    2754:	c6 05 42 57 20 00 0b 	movb	$11, 2119490(%rip)
    275b:	c6 05 3c 57 20 00 03 	movb	$3, 2119484(%rip)
    2762:	c6 05 36 57 20 00 08 	movb	$8, 2119478(%rip)
    2769:	c6 05 30 57 20 00 09 	movb	$9, 2119472(%rip)
    2770:	c6 05 2a 57 20 00 0e 	movb	$14, 2119466(%rip)
    2777:	c6 05 24 57 20 00 0f 	movb	$15, 2119460(%rip)
    277e:	c6 05 1e 57 20 00 05 	movb	$5, 2119454(%rip)
    2785:	c6 05 18 57 20 00 02 	movb	$2, 2119448(%rip)
    278c:	c6 05 12 57 20 00 08 	movb	$8, 2119442(%rip)
    2793:	c6 05 0c 57 20 00 0c 	movb	$12, 2119436(%rip)
    279a:	c6 05 06 57 20 00 03 	movb	$3, 2119430(%rip)
    27a1:	c6 05 00 57 20 00 07 	movb	$7, 2119424(%rip)
    27a8:	c6 05 fa 56 20 00 00 	movb	$0, 2119418(%rip)
    27af:	c6 05 f4 56 20 00 04 	movb	$4, 2119412(%rip)
    27b6:	c6 05 ee 56 20 00 0a 	movb	$10, 2119406(%rip)
    27bd:	c6 05 e8 56 20 00 01 	movb	$1, 2119400(%rip)
    27c4:	c6 05 e2 56 20 00 0d 	movb	$13, 2119394(%rip)
    27cb:	c6 05 dc 56 20 00 0b 	movb	$11, 2119388(%rip)
    27d2:	c6 05 d6 56 20 00 06 	movb	$6, 2119382(%rip)
    27d9:	c6 05 d0 56 20 00 04 	movb	$4, 2119376(%rip)
    27e0:	c6 05 ca 56 20 00 03 	movb	$3, 2119370(%rip)
    27e7:	c6 05 c4 56 20 00 02 	movb	$2, 2119364(%rip)
    27ee:	c6 05 be 56 20 00 0c 	movb	$12, 2119358(%rip)
    27f5:	c6 05 b8 56 20 00 09 	movb	$9, 2119352(%rip)
    27fc:	c6 05 b2 56 20 00 05 	movb	$5, 2119346(%rip)
    2803:	c6 05 ac 56 20 00 0f 	movb	$15, 2119340(%rip)
    280a:	c6 05 a6 56 20 00 0a 	movb	$10, 2119334(%rip)
    2811:	c6 05 a0 56 20 00 0b 	movb	$11, 2119328(%rip)
    2818:	c6 05 9a 56 20 00 0e 	movb	$14, 2119322(%rip)
    281f:	c6 05 94 56 20 00 01 	movb	$1, 2119316(%rip)
    2826:	c6 05 8e 56 20 00 07 	movb	$7, 2119310(%rip)
    282d:	c6 05 88 56 20 00 06 	movb	$6, 2119304(%rip)
    2834:	c6 05 82 56 20 00 00 	movb	$0, 2119298(%rip)
    283b:	c6 05 7c 56 20 00 08 	movb	$8, 2119292(%rip)
    2842:	c6 05 76 56 20 00 0d 	movb	$13, 2119286(%rip)
    2849:	c6 05 70 56 20 00 04 	movb	$4, 2119280(%rip)
    2850:	c6 05 6a 56 20 00 0b 	movb	$11, 2119274(%rip)
    2857:	c6 05 64 56 20 00 02 	movb	$2, 2119268(%rip)
    285e:	c6 05 5e 56 20 00 0e 	movb	$14, 2119262(%rip)
    2865:	c6 05 58 56 20 00 0f 	movb	$15, 2119256(%rip)
    286c:	c6 05 52 56 20 00 00 	movb	$0, 2119250(%rip)
    2873:	c6 05 4c 56 20 00 08 	movb	$8, 2119244(%rip)
    287a:	c6 05 46 56 20 00 0d 	movb	$13, 2119238(%rip)
    2881:	c6 05 40 56 20 00 03 	movb	$3, 2119232(%rip)
    2888:	c6 05 3a 56 20 00 0c 	movb	$12, 2119226(%rip)
    288f:	c6 05 34 56 20 00 09 	movb	$9, 2119220(%rip)
    2896:	c6 05 2e 56 20 00 07 	movb	$7, 2119214(%rip)
    289d:	c6 05 28 56 20 00 05 	movb	$5, 2119208(%rip)
    28a4:	c6 05 22 56 20 00 0a 	movb	$10, 2119202(%rip)
    28ab:	c6 05 1c 56 20 00 06 	movb	$6, 2119196(%rip)
    28b2:	c6 05 16 56 20 00 01 	movb	$1, 2119190(%rip)
    28b9:	c6 05 10 56 20 00 0d 	movb	$13, 2119184(%rip)
    28c0:	c6 05 0a 56 20 00 00 	movb	$0, 2119178(%rip)
    28c7:	c6 05 04 56 20 00 0b 	movb	$11, 2119172(%rip)
    28ce:	c6 05 fe 55 20 00 07 	movb	$7, 2119166(%rip)
    28d5:	c6 05 f8 55 20 00 04 	movb	$4, 2119160(%rip)
    28dc:	c6 05 f2 55 20 00 09 	movb	$9, 2119154(%rip)
    28e3:	c6 05 ec 55 20 00 01 	movb	$1, 2119148(%rip)
    28ea:	c6 05 e6 55 20 00 0a 	movb	$10, 2119142(%rip)
    28f1:	c6 05 e0 55 20 00 0e 	movb	$14, 2119136(%rip)
    28f8:	c6 05 da 55 20 00 03 	movb	$3, 2119130(%rip)
    28ff:	c6 05 d4 55 20 00 05 	movb	$5, 2119124(%rip)
    2906:	c6 05 ce 55 20 00 0c 	movb	$12, 2119118(%rip)
    290d:	c6 05 c8 55 20 00 02 	movb	$2, 2119112(%rip)
    2914:	c6 05 c2 55 20 00 0f 	movb	$15, 2119106(%rip)
    291b:	c6 05 bc 55 20 00 08 	movb	$8, 2119100(%rip)
    2922:	c6 05 b6 55 20 00 06 	movb	$6, 2119094(%rip)
    2929:	c6 05 b0 55 20 00 01 	movb	$1, 2119088(%rip)
    2930:	c6 05 aa 55 20 00 04 	movb	$4, 2119082(%rip)
    2937:	c6 05 a4 55 20 00 0b 	movb	$11, 2119076(%rip)
    293e:	c6 05 9e 55 20 00 0d 	movb	$13, 2119070(%rip)
    2945:	c6 05 98 55 20 00 0c 	movb	$12, 2119064(%rip)
    294c:	c6 05 92 55 20 00 03 	movb	$3, 2119058(%rip)
    2953:	c6 05 8c 55 20 00 07 	movb	$7, 2119052(%rip)
    295a:	c6 05 86 55 20 00 0e 	movb	$14, 2119046(%rip)
    2961:	c6 05 80 55 20 00 0a 	movb	$10, 2119040(%rip)
    2968:	c6 05 7a 55 20 00 0f 	movb	$15, 2119034(%rip)
    296f:	c6 05 74 55 20 00 06 	movb	$6, 2119028(%rip)
    2976:	c6 05 6e 55 20 00 08 	movb	$8, 2119022(%rip)
    297d:	c6 05 68 55 20 00 00 	movb	$0, 2119016(%rip)
    2984:	c6 05 62 55 20 00 05 	movb	$5, 2119010(%rip)
    298b:	c6 05 5c 55 20 00 09 	movb	$9, 2119004(%rip)
    2992:	c6 05 56 55 20 00 02 	movb	$2, 2118998(%rip)
    2999:	c6 05 50 55 20 00 06 	movb	$6, 2118992(%rip)
    29a0:	c6 05 4a 55 20 00 0b 	movb	$11, 2118986(%rip)
    29a7:	c6 05 44 55 20 00 0d 	movb	$13, 2118980(%rip)
    29ae:	c6 05 3e 55 20 00 08 	movb	$8, 2118974(%rip)
    29b5:	c6 05 38 55 20 00 01 	movb	$1, 2118968(%rip)
    29bc:	c6 05 32 55 20 00 04 	movb	$4, 2118962(%rip)
    29c3:	c6 05 2c 55 20 00 0a 	movb	$10, 2118956(%rip)
    29ca:	c6 05 26 55 20 00 07 	movb	$7, 2118950(%rip)
    29d1:	c6 05 20 55 20 00 09 	movb	$9, 2118944(%rip)
    29d8:	c6 05 1a 55 20 00 05 	movb	$5, 2118938(%rip)
    29df:	c6 05 14 55 20 00 00 	movb	$0, 2118932(%rip)
    29e6:	c6 05 0e 55 20 00 0f 	movb	$15, 2118926(%rip)
    29ed:	c6 05 08 55 20 00 0e 	movb	$14, 2118920(%rip)
    29f4:	c6 05 02 55 20 00 02 	movb	$2, 2118914(%rip)
    29fb:	c6 05 fc 54 20 00 03 	movb	$3, 2118908(%rip)
    2a02:	c6 05 f6 54 20 00 0c 	movb	$12, 2118902(%rip)
    2a09:	c6 05 f0 54 20 00 0d 	movb	$13, 2118896(%rip)
    2a10:	c6 05 ea 54 20 00 02 	movb	$2, 2118890(%rip)
    2a17:	c6 05 e4 54 20 00 08 	movb	$8, 2118884(%rip)
    2a1e:	c6 05 de 54 20 00 04 	movb	$4, 2118878(%rip)
    2a25:	c6 05 d8 54 20 00 06 	movb	$6, 2118872(%rip)
    2a2c:	c6 05 d2 54 20 00 0f 	movb	$15, 2118866(%rip)
    2a33:	c6 05 cc 54 20 00 0b 	movb	$11, 2118860(%rip)
    2a3a:	c6 05 c6 54 20 00 01 	movb	$1, 2118854(%rip)
    2a41:	c6 05 c0 54 20 00 0a 	movb	$10, 2118848(%rip)
    2a48:	c6 05 ba 54 20 00 09 	movb	$9, 2118842(%rip)
    2a4f:	c6 05 b4 54 20 00 03 	movb	$3, 2118836(%rip)
    2a56:	c6 05 ae 54 20 00 0e 	movb	$14, 2118830(%rip)
    2a5d:	c6 05 a8 54 20 00 05 	movb	$5, 2118824(%rip)
    2a64:	c6 05 a2 54 20 00 00 	movb	$0, 2118818(%rip)
    2a6b:	c6 05 9c 54 20 00 0c 	movb	$12, 2118812(%rip)
    2a72:	c6 05 96 54 20 00 07 	movb	$7, 2118806(%rip)
    2a79:	c6 05 90 54 20 00 01 	movb	$1, 2118800(%rip)
    2a80:	c6 05 8a 54 20 00 0f 	movb	$15, 2118794(%rip)
    2a87:	c6 05 84 54 20 00 0d 	movb	$13, 2118788(%rip)
    2a8e:	c6 05 7e 54 20 00 08 	movb	$8, 2118782(%rip)
    2a95:	c6 05 78 54 20 00 0a 	movb	$10, 2118776(%rip)
    2a9c:	c6 05 72 54 20 00 03 	movb	$3, 2118770(%rip)
    2aa3:	c6 05 6c 54 20 00 07 	movb	$7, 2118764(%rip)
    2aaa:	c6 05 66 54 20 00 04 	movb	$4, 2118758(%rip)
    2ab1:	c6 05 60 54 20 00 0c 	movb	$12, 2118752(%rip)
    2ab8:	c6 05 5a 54 20 00 05 	movb	$5, 2118746(%rip)
    2abf:	c6 05 54 54 20 00 06 	movb	$6, 2118740(%rip)
    2ac6:	c6 05 4e 54 20 00 0b 	movb	$11, 2118734(%rip)
    2acd:	c6 05 48 54 20 00 00 	movb	$0, 2118728(%rip)
    2ad4:	c6 05 42 54 20 00 0e 	movb	$14, 2118722(%rip)
    2adb:	c6 05 3c 54 20 00 09 	movb	$9, 2118716(%rip)
    2ae2:	c6 05 36 54 20 00 02 	movb	$2, 2118710(%rip)
    2ae9:	c6 05 30 54 20 00 07 	movb	$7, 2118704(%rip)
    2af0:	c6 05 2a 54 20 00 0b 	movb	$11, 2118698(%rip)
    2af7:	c6 05 24 54 20 00 04 	movb	$4, 2118692(%rip)
    2afe:	c6 05 1e 54 20 00 01 	movb	$1, 2118686(%rip)
    2b05:	c6 05 18 54 20 00 09 	movb	$9, 2118680(%rip)
    2b0c:	c6 05 12 54 20 00 0c 	movb	$12, 2118674(%rip)
    2b13:	c6 05 0c 54 20 00 0e 	movb	$14, 2118668(%rip)
    2b1a:	c6 05 06 54 20 00 02 	movb	$2, 2118662(%rip)
    2b21:	c6 05 00 54 20 00 00 	movb	$0, 2118656(%rip)
    2b28:	c6 05 fa 53 20 00 06 	movb	$6, 2118650(%rip)
    2b2f:	c6 05 f4 53 20 00 0a 	movb	$10, 2118644(%rip)
    2b36:	c6 05 ee 53 20 00 0d 	movb	$13, 2118638(%rip)
    2b3d:	c6 05 e8 53 20 00 0f 	movb	$15, 2118632(%rip)
    2b44:	c6 05 e2 53 20 00 03 	movb	$3, 2118626(%rip)
    2b4b:	c6 05 dc 53 20 00 05 	movb	$5, 2118620(%rip)
    2b52:	c6 05 d6 53 20 00 08 	movb	$8, 2118614(%rip)
    2b59:	c6 05 d0 53 20 00 02 	movb	$2, 2118608(%rip)
    2b60:	c6 05 ca 53 20 00 01 	movb	$1, 2118602(%rip)
    2b67:	c6 05 c4 53 20 00 0e 	movb	$14, 2118596(%rip)
    2b6e:	c6 05 be 53 20 00 07 	movb	$7, 2118590(%rip)
    2b75:	c6 05 b8 53 20 00 04 	movb	$4, 2118584(%rip)
    2b7c:	c6 05 b2 53 20 00 0a 	movb	$10, 2118578(%rip)
    2b83:	c6 05 ac 53 20 00 08 	movb	$8, 2118572(%rip)
    2b8a:	c6 05 a6 53 20 00 0d 	movb	$13, 2118566(%rip)
    2b91:	c6 05 a0 53 20 00 0f 	movb	$15, 2118560(%rip)
    2b98:	c6 05 9a 53 20 00 0c 	movb	$12, 2118554(%rip)
    2b9f:	c6 05 94 53 20 00 09 	movb	$9, 2118548(%rip)
    2ba6:	c6 05 8e 53 20 00 00 	movb	$0, 2118542(%rip)
    2bad:	c6 05 88 53 20 00 03 	movb	$3, 2118536(%rip)
    2bb4:	c6 05 82 53 20 00 05 	movb	$5, 2118530(%rip)
    2bbb:	c6 05 7c 53 20 00 06 	movb	$6, 2118524(%rip)
    2bc2:	c6 05 76 53 20 00 0b 	movb	$11, 2118518(%rip)
    2bc9:	90 	nop
    2bca:	5d 	popq	%rbp
    2bcb:	c3 	retq
    2bcc:	55 	pushq	%rbp
    2bcd:	48 89 e5 	movq	%rsp, %rbp
    2bd0:	c6 05 49 51 20 00 10 	movb	$16, 2117961(%rip)
    2bd7:	c6 05 43 51 20 00 07 	movb	$7, 2117955(%rip)
    2bde:	c6 05 3d 51 20 00 14 	movb	$20, 2117949(%rip)
    2be5:	c6 05 37 51 20 00 15 	movb	$21, 2117943(%rip)
    2bec:	c6 05 31 51 20 00 1d 	movb	$29, 2117937(%rip)
    2bf3:	c6 05 2b 51 20 00 0c 	movb	$12, 2117931(%rip)
    2bfa:	c6 05 25 51 20 00 1c 	movb	$28, 2117925(%rip)
    2c01:	c6 05 1f 51 20 00 11 	movb	$17, 2117919(%rip)
    2c08:	c6 05 19 51 20 00 01 	movb	$1, 2117913(%rip)
    2c0f:	c6 05 13 51 20 00 0f 	movb	$15, 2117907(%rip)
    2c16:	c6 05 0d 51 20 00 17 	movb	$23, 2117901(%rip)
    2c1d:	c6 05 07 51 20 00 1a 	movb	$26, 2117895(%rip)
    2c24:	c6 05 01 51 20 00 05 	movb	$5, 2117889(%rip)
    2c2b:	c6 05 fb 50 20 00 12 	movb	$18, 2117883(%rip)
    2c32:	c6 05 f5 50 20 00 1f 	movb	$31, 2117877(%rip)
    2c39:	c6 05 ef 50 20 00 0a 	movb	$10, 2117871(%rip)
    2c40:	c6 05 e9 50 20 00 02 	movb	$2, 2117865(%rip)
    2c47:	c6 05 e3 50 20 00 08 	movb	$8, 2117859(%rip)
    2c4e:	c6 05 dd 50 20 00 18 	movb	$24, 2117853(%rip)
    2c55:	c6 05 d7 50 20 00 0e 	movb	$14, 2117847(%rip)
    2c5c:	c6 05 d1 50 20 00 20 	movb	$32, 2117841(%rip)
    2c63:	c6 05 cb 50 20 00 1b 	movb	$27, 2117835(%rip)
    2c6a:	c6 05 c5 50 20 00 03 	movb	$3, 2117829(%rip)
    2c71:	c6 05 bf 50 20 00 09 	movb	$9, 2117823(%rip)
    2c78:	c6 05 b9 50 20 00 13 	movb	$19, 2117817(%rip)
    2c7f:	c6 05 b3 50 20 00 0d 	movb	$13, 2117811(%rip)
    2c86:	c6 05 ad 50 20 00 1e 	movb	$30, 2117805(%rip)
    2c8d:	c6 05 a7 50 20 00 06 	movb	$6, 2117799(%rip)
    2c94:	c6 05 a1 50 20 00 16 	movb	$22, 2117793(%rip)
    2c9b:	c6 05 9b 50 20 00 0b 	movb	$11, 2117787(%rip)
    2ca2:	c6 05 95 50 20 00 04 	movb	$4, 2117781(%rip)
    2ca9:	c6 05 8f 50 20 00 19 	movb	$25, 2117775(%rip)
    2cb0:	90 	nop
    2cb1:	5d 	popq	%rbp
    2cb2:	c3 	retq
    2cb3:	55 	pushq	%rbp
    2cb4:	48 89 e5 	movq	%rsp, %rbp
    2cb7:	c6 05 e2 4f 20 00 20 	movb	$32, 2117602(%rip)
    2cbe:	c6 05 dc 4f 20 00 01 	movb	$1, 2117596(%rip)
    2cc5:	c6 05 d6 4f 20 00 02 	movb	$2, 2117590(%rip)
    2ccc:	c6 05 d0 4f 20 00 03 	movb	$3, 2117584(%rip)
    2cd3:	c6 05 ca 4f 20 00 04 	movb	$4, 2117578(%rip)
    2cda:	c6 05 c4 4f 20 00 05 	movb	$5, 2117572(%rip)
    2ce1:	c6 05 be 4f 20 00 04 	movb	$4, 2117566(%rip)
    2ce8:	c6 05 b8 4f 20 00 05 	movb	$5, 2117560(%rip)
    2cef:	c6 05 b2 4f 20 00 06 	movb	$6, 2117554(%rip)
    2cf6:	c6 05 ac 4f 20 00 07 	movb	$7, 2117548(%rip)
    2cfd:	c6 05 a6 4f 20 00 08 	movb	$8, 2117542(%rip)
    2d04:	c6 05 a0 4f 20 00 09 	movb	$9, 2117536(%rip)
    2d0b:	c6 05 9a 4f 20 00 08 	movb	$8, 2117530(%rip)
    2d12:	c6 05 94 4f 20 00 09 	movb	$9, 2117524(%rip)
    2d19:	c6 05 8e 4f 20 00 0a 	movb	$10, 2117518(%rip)
    2d20:	c6 05 88 4f 20 00 0b 	movb	$11, 2117512(%rip)
    2d27:	c6 05 82 4f 20 00 0c 	movb	$12, 2117506(%rip)
    2d2e:	c6 05 7c 4f 20 00 0d 	movb	$13, 2117500(%rip)
    2d35:	c6 05 76 4f 20 00 0c 	movb	$12, 2117494(%rip)
    2d3c:	c6 05 70 4f 20 00 0d 	movb	$13, 2117488(%rip)
    2d43:	c6 05 6a 4f 20 00 0e 	movb	$14, 2117482(%rip)
    2d4a:	c6 05 64 4f 20 00 0f 	movb	$15, 2117476(%rip)
    2d51:	c6 05 5e 4f 20 00 10 	movb	$16, 2117470(%rip)
    2d58:	c6 05 58 4f 20 00 11 	movb	$17, 2117464(%rip)
    2d5f:	c6 05 52 4f 20 00 10 	movb	$16, 2117458(%rip)
    2d66:	c6 05 4c 4f 20 00 11 	movb	$17, 2117452(%rip)
    2d6d:	c6 05 46 4f 20 00 12 	movb	$18, 2117446(%rip)
    2d74:	c6 05 40 4f 20 00 13 	movb	$19, 2117440(%rip)
    2d7b:	c6 05 3a 4f 20 00 14 	movb	$20, 2117434(%rip)
    2d82:	c6 05 34 4f 20 00 15 	movb	$21, 2117428(%rip)
    2d89:	c6 05 2e 4f 20 00 14 	movb	$20, 2117422(%rip)
    2d90:	c6 05 28 4f 20 00 15 	movb	$21, 2117416(%rip)
    2d97:	c6 05 22 4f 20 00 16 	movb	$22, 2117410(%rip)
    2d9e:	c6 05 1c 4f 20 00 17 	movb	$23, 2117404(%rip)
    2da5:	c6 05 16 4f 20 00 18 	movb	$24, 2117398(%rip)
    2dac:	c6 05 10 4f 20 00 19 	movb	$25, 2117392(%rip)
    2db3:	c6 05 0a 4f 20 00 18 	movb	$24, 2117386(%rip)
    2dba:	c6 05 04 4f 20 00 19 	movb	$25, 2117380(%rip)
    2dc1:	c6 05 fe 4e 20 00 1a 	movb	$26, 2117374(%rip)
    2dc8:	c6 05 f8 4e 20 00 1b 	movb	$27, 2117368(%rip)
    2dcf:	c6 05 f2 4e 20 00 1c 	movb	$28, 2117362(%rip)
    2dd6:	c6 05 ec 4e 20 00 1d 	movb	$29, 2117356(%rip)
    2ddd:	c6 05 e6 4e 20 00 1c 	movb	$28, 2117350(%rip)
    2de4:	c6 05 e0 4e 20 00 1d 	movb	$29, 2117344(%rip)
    2deb:	c6 05 da 4e 20 00 1e 	movb	$30, 2117338(%rip)
    2df2:	c6 05 d4 4e 20 00 1f 	movb	$31, 2117332(%rip)
    2df9:	c6 05 ce 4e 20 00 20 	movb	$32, 2117326(%rip)
    2e00:	c6 05 c8 4e 20 00 01 	movb	$1, 2117320(%rip)
    2e07:	90 	nop
    2e08:	5d 	popq	%rbp
    2e09:	c3 	retq
    2e0a:	55 	pushq	%rbp
    2e0b:	48 89 e5 	movq	%rsp, %rbp
    2e0e:	48 81 ec 70 01 00 00 	subq	$368, %rsp
    2e15:	89 bd ac fe ff ff 	movl	%edi, -340(%rbp)
    2e1b:	48 89 b5 a0 fe ff ff 	movq	%rsi, -352(%rbp)
    2e22:	48 89 95 98 fe ff ff 	movq	%rdx, -360(%rbp)
    2e29:	64 48 8b 04 25 28 00 00 00 	movq	%fs:40, %rax
    2e32:	48 89 45 f8 	movq	%rax, -8(%rbp)
    2e36:	31 c0 	xorl	%eax, %eax
    2e38:	e8 ff 00 00 00 	callq	255 <.text+0x26ec>
    2e3d:	8b 85 ac fe ff ff 	movl	-340(%rbp), %eax
    2e43:	89 05 27 4d 20 00 	movl	%eax, 2116903(%rip)
    2e49:	48 8b 85 a0 fe ff ff 	movq	-352(%rbp), %rax
    2e50:	48 89 05 09 4d 20 00 	movq	%rax, 2116873(%rip)
    2e57:	48 8b 85 98 fe ff ff 	movq	-360(%rbp), %rax
    2e5e:	48 89 05 4b 4d 20 00 	movq	%rax, 2116939(%rip)
    2e65:	c7 85 bc fe ff ff 01 00 00 00 	movl	$1, -324(%rbp)
    2e6f:	48 8d 3d 02 23 00 00 	leaq	8962(%rip), %rdi
    2e76:	b8 00 00 00 00 	movl	$0, %eax
    2e7b:	e8 60 d9 ff ff 	callq	-9888 <.plt+0x50>
    2e80:	48 8d 85 c0 fe ff ff 	leaq	-320(%rbp), %rax
    2e87:	48 89 c6 	movq	%rax, %rsi
    2e8a:	48 8d 3d f8 22 00 00 	leaq	8952(%rip), %rdi
    2e91:	b8 00 00 00 00 	movl	$0, %eax
    2e96:	e8 95 d9 ff ff 	callq	-9835 <.plt+0xa0>
    2e9b:	48 8d 85 c0 fe ff ff 	leaq	-320(%rbp), %rax
    2ea2:	48 89 c7 	movq	%rax, %rdi
    2ea5:	e8 b0 da ff ff 	callq	-9552 <.text+0x10a>
    2eaa:	b8 00 00 00 00 	movl	$0, %eax
    2eaf:	48 8b 4d f8 	movq	-8(%rbp), %rcx
    2eb3:	64 48 33 0c 25 28 00 00 00 	xorq	%fs:40, %rcx
    2ebc:	74 05 	je	5 <.text+0x2673>
    2ebe:	e8 0d d9 ff ff 	callq	-9971 <.plt+0x40>
    2ec3:	c9 	leave
    2ec4:	c3 	retq
    2ec5:	55 	pushq	%rbp
    2ec6:	48 89 e5 	movq	%rsp, %rbp
    2ec9:	c6 05 00 4e 20 00 01 	movb	$1, 2117120(%rip)
    2ed0:	c6 05 fa 4d 20 00 01 	movb	$1, 2117114(%rip)
    2ed7:	c6 05 f4 4d 20 00 02 	movb	$2, 2117108(%rip)
    2ede:	c6 05 ee 4d 20 00 02 	movb	$2, 2117102(%rip)
    2ee5:	c6 05 e8 4d 20 00 02 	movb	$2, 2117096(%rip)
    2eec:	c6 05 e2 4d 20 00 02 	movb	$2, 2117090(%rip)
    2ef3:	c6 05 dc 4d 20 00 02 	movb	$2, 2117084(%rip)
    2efa:	c6 05 d6 4d 20 00 02 	movb	$2, 2117078(%rip)
    2f01:	c6 05 d0 4d 20 00 01 	movb	$1, 2117072(%rip)
    2f08:	c6 05 ca 4d 20 00 02 	movb	$2, 2117066(%rip)
    2f0f:	c6 05 c4 4d 20 00 02 	movb	$2, 2117060(%rip)
    2f16:	c6 05 be 4d 20 00 02 	movb	$2, 2117054(%rip)
    2f1d:	c6 05 b8 4d 20 00 02 	movb	$2, 2117048(%rip)
    2f24:	c6 05 b2 4d 20 00 02 	movb	$2, 2117042(%rip)
    2f2b:	c6 05 ac 4d 20 00 02 	movb	$2, 2117036(%rip)
    2f32:	c6 05 a6 4d 20 00 01 	movb	$1, 2117030(%rip)
    2f39:	90 	nop
    2f3a:	5d 	popq	%rbp
    2f3b:	c3 	retq
    2f3c:	55 	pushq	%rbp
    2f3d:	48 89 e5 	movq	%rsp, %rbp
    2f40:	e8 26 00 00 00 	callq	38 <.text+0x271b>
    2f45:	e8 ec ec ff ff 	callq	-4884 <.text+0x13e6>
    2f4a:	e8 64 fd ff ff 	callq	-668 <.text+0x2463>
    2f4f:	e8 78 fc ff ff 	callq	-904 <.text+0x237c>
    2f54:	e8 bf e9 ff ff 	callq	-5697 <.text+0x10c8>
    2f59:	e8 67 ee ff ff 	callq	-4505 <.text+0x1575>
    2f5e:	e8 62 ff ff ff 	callq	-158 <.text+0x2675>
    2f63:	e8 77 eb ff ff 	callq	-5257 <.text+0x128f>
    2f68:	90 	nop
    2f69:	5d 	popq	%rbp
    2f6a:	c3 	retq
    2f6b:	55 	pushq	%rbp
    2f6c:	48 89 e5 	movq	%rsp, %rbp
    2f6f:	c6 05 aa 4c 20 00 28 	movb	$40, 2116778(%rip)
    2f76:	c6 05 a4 4c 20 00 08 	movb	$8, 2116772(%rip)
    2f7d:	c6 05 9e 4c 20 00 30 	movb	$48, 2116766(%rip)
    2f84:	c6 05 98 4c 20 00 10 	movb	$16, 2116760(%rip)
    2f8b:	c6 05 92 4c 20 00 38 	movb	$56, 2116754(%rip)
    2f92:	c6 05 8c 4c 20 00 18 	movb	$24, 2116748(%rip)
    2f99:	c6 05 86 4c 20 00 40 	movb	$64, 2116742(%rip)
    2fa0:	c6 05 80 4c 20 00 20 	movb	$32, 2116736(%rip)
    2fa7:	c6 05 7a 4c 20 00 27 	movb	$39, 2116730(%rip)
    2fae:	c6 05 74 4c 20 00 07 	movb	$7, 2116724(%rip)
    2fb5:	c6 05 6e 4c 20 00 2f 	movb	$47, 2116718(%rip)
    2fbc:	c6 05 68 4c 20 00 0f 	movb	$15, 2116712(%rip)
    2fc3:	c6 05 62 4c 20 00 37 	movb	$55, 2116706(%rip)
    2fca:	c6 05 5c 4c 20 00 17 	movb	$23, 2116700(%rip)
    2fd1:	c6 05 56 4c 20 00 3f 	movb	$63, 2116694(%rip)
    2fd8:	c6 05 50 4c 20 00 1f 	movb	$31, 2116688(%rip)
    2fdf:	c6 05 4a 4c 20 00 26 	movb	$38, 2116682(%rip)
    2fe6:	c6 05 44 4c 20 00 06 	movb	$6, 2116676(%rip)
    2fed:	c6 05 3e 4c 20 00 2e 	movb	$46, 2116670(%rip)
    2ff4:	c6 05 38 4c 20 00 0e 	movb	$14, 2116664(%rip)
    2ffb:	c6 05 32 4c 20 00 36 	movb	$54, 2116658(%rip)
    3002:	c6 05 2c 4c 20 00 16 	movb	$22, 2116652(%rip)
    3009:	c6 05 26 4c 20 00 3e 	movb	$62, 2116646(%rip)
    3010:	c6 05 20 4c 20 00 1e 	movb	$30, 2116640(%rip)
    3017:	c6 05 1a 4c 20 00 25 	movb	$37, 2116634(%rip)
    301e:	c6 05 14 4c 20 00 05 	movb	$5, 2116628(%rip)
    3025:	c6 05 0e 4c 20 00 2d 	movb	$45, 2116622(%rip)
    302c:	c6 05 08 4c 20 00 0d 	movb	$13, 2116616(%rip)
    3033:	c6 05 02 4c 20 00 35 	movb	$53, 2116610(%rip)
    303a:	c6 05 fc 4b 20 00 15 	movb	$21, 2116604(%rip)
    3041:	c6 05 f6 4b 20 00 3d 	movb	$61, 2116598(%rip)
    3048:	c6 05 f0 4b 20 00 1d 	movb	$29, 2116592(%rip)
    304f:	c6 05 ea 4b 20 00 24 	movb	$36, 2116586(%rip)
    3056:	c6 05 e4 4b 20 00 04 	movb	$4, 2116580(%rip)
    305d:	c6 05 de 4b 20 00 2c 	movb	$44, 2116574(%rip)
    3064:	c6 05 d8 4b 20 00 0c 	movb	$12, 2116568(%rip)
    306b:	c6 05 d2 4b 20 00 34 	movb	$52, 2116562(%rip)
    3072:	c6 05 cc 4b 20 00 14 	movb	$20, 2116556(%rip)
    3079:	c6 05 c6 4b 20 00 3c 	movb	$60, 2116550(%rip)
    3080:	c6 05 c0 4b 20 00 1c 	movb	$28, 2116544(%rip)
    3087:	c6 05 ba 4b 20 00 23 	movb	$35, 2116538(%rip)
    308e:	c6 05 b4 4b 20 00 03 	movb	$3, 2116532(%rip)
    3095:	c6 05 ae 4b 20 00 2b 	movb	$43, 2116526(%rip)
    309c:	c6 05 a8 4b 20 00 0b 	movb	$11, 2116520(%rip)
    30a3:	c6 05 a2 4b 20 00 33 	movb	$51, 2116514(%rip)
    30aa:	c6 05 9c 4b 20 00 13 	movb	$19, 2116508(%rip)
    30b1:	c6 05 96 4b 20 00 3b 	movb	$59, 2116502(%rip)
    30b8:	c6 05 90 4b 20 00 1b 	movb	$27, 2116496(%rip)
    30bf:	c6 05 8a 4b 20 00 22 	movb	$34, 2116490(%rip)
    30c6:	c6 05 84 4b 20 00 02 	movb	$2, 2116484(%rip)
    30cd:	c6 05 7e 4b 20 00 2a 	movb	$42, 2116478(%rip)
    30d4:	c6 05 78 4b 20 00 0a 	movb	$10, 2116472(%rip)
    30db:	c6 05 72 4b 20 00 32 	movb	$50, 2116466(%rip)
    30e2:	c6 05 6c 4b 20 00 12 	movb	$18, 2116460(%rip)
    30e9:	c6 05 66 4b 20 00 3a 	movb	$58, 2116454(%rip)
    30f0:	c6 05 60 4b 20 00 1a 	movb	$26, 2116448(%rip)
    30f7:	c6 05 5a 4b 20 00 21 	movb	$33, 2116442(%rip)
    30fe:	c6 05 54 4b 20 00 01 	movb	$1, 2116436(%rip)
    3105:	c6 05 4e 4b 20 00 29 	movb	$41, 2116430(%rip)
    310c:	c6 05 48 4b 20 00 09 	movb	$9, 2116424(%rip)
    3113:	c6 05 42 4b 20 00 31 	movb	$49, 2116418(%rip)
    311a:	c6 05 3c 4b 20 00 11 	movb	$17, 2116412(%rip)
    3121:	c6 05 36 4b 20 00 39 	movb	$57, 2116406(%rip)
    3128:	c6 05 30 4b 20 00 19 	movb	$25, 2116400(%rip)
    312f:	90 	nop
    3130:	5d 	popq	%rbp
    3131:	c3 	retq
    3132:	55 	pushq	%rbp
    3133:	48 89 e5 	movq	%rsp, %rbp
    3136:	53 	pushq	%rbx
    3137:	48 81 ec d8 01 00 00 	subq	$472, %rsp
    313e:	48 89 bd 28 fe ff ff 	movq	%rdi, -472(%rbp)
    3145:	48 89 b5 20 fe ff ff 	movq	%rsi, -480(%rbp)
    314c:	64 48 8b 04 25 28 00 00 00 	movq	%fs:40, %rax
    3155:	48 89 45 e8 	movq	%rax, -24(%rbp)
    3159:	31 c0 	xorl	%eax, %eax
    315b:	c7 85 44 fe ff ff 01 00 00 00 	movl	$1, -444(%rbp)
    3165:	bf 18 00 00 00 	movl	$24, %edi
    316a:	e8 91 d6 ff ff 	callq	-10607 <.plt+0x70>
    316f:	48 89 85 50 fe ff ff 	movq	%rax, -432(%rbp)
    3176:	48 8b 85 50 fe ff ff 	movq	-432(%rbp), %rax
    317d:	48 8b 95 50 fe ff ff 	movq	-432(%rbp), %rdx
    3184:	48 89 10 	movq	%rdx, (%rax)
    3187:	48 8b 85 50 fe ff ff 	movq	-432(%rbp), %rax
    318e:	48 8b 95 50 fe ff ff 	movq	-432(%rbp), %rdx
    3195:	48 89 50 10 	movq	%rdx, 16(%rax)
    3199:	48 8b 85 50 fe ff ff 	movq	-432(%rbp), %rax
    31a0:	48 89 05 01 4a 20 00 	movq	%rax, 2116097(%rip)
    31a7:	c7 85 40 fe ff ff 00 00 00 00 	movl	$0, -448(%rbp)
    31b1:	e9 9f 00 00 00 	jmp	159 <.text+0x2a05>
    31b6:	bf 18 00 00 00 	movl	$24, %edi
    31bb:	e8 40 d6 ff ff 	callq	-10688 <.plt+0x70>
    31c0:	48 89 85 58 fe ff ff 	movq	%rax, -424(%rbp)
    31c7:	8b 85 40 fe ff ff 	movl	-448(%rbp), %eax
    31cd:	48 98 	cltq
    31cf:	89 c1 	movl	%eax, %ecx
    31d1:	48 8b 05 d0 37 20 00 	movq	2111440(%rip), %rax
    31d8:	48 01 c0 	addq	%rax, %rax
    31db:	48 83 c8 0c 	orq	$12, %rax
    31df:	48 89 c2 	movq	%rax, %rdx
    31e2:	48 8b 05 bf 37 20 00 	movq	2111423(%rip), %rax
    31e9:	48 83 f0 06 	xorq	$6, %rax
    31ed:	48 29 c2 	subq	%rax, %rdx
    31f0:	48 89 d0 	movq	%rdx, %rax
    31f3:	0f af c1 	imull	%ecx, %eax
    31f6:	89 c2 	movl	%eax, %edx
    31f8:	48 8b 85 58 fe ff ff 	movq	-424(%rbp), %rax
    31ff:	89 50 08 	movl	%edx, 8(%rax)
    3202:	48 8b 05 9f 49 20 00 	movq	2115999(%rip), %rax
    3209:	48 8b 10 	movq	(%rax), %rdx
    320c:	48 8b 85 58 fe ff ff 	movq	-424(%rbp), %rax
    3213:	48 89 10 	movq	%rdx, (%rax)
    3216:	48 8b 15 8b 49 20 00 	movq	2115979(%rip), %rdx
    321d:	48 8b 85 58 fe ff ff 	movq	-424(%rbp), %rax
    3224:	48 89 50 10 	movq	%rdx, 16(%rax)
    3228:	48 8b 05 79 49 20 00 	movq	2115961(%rip), %rax
    322f:	48 8b 00 	movq	(%rax), %rax
    3232:	48 8b 95 58 fe ff ff 	movq	-424(%rbp), %rdx
    3239:	48 89 50 10 	movq	%rdx, 16(%rax)
    323d:	48 8b 05 64 49 20 00 	movq	2115940(%rip), %rax
    3244:	48 8b 95 58 fe ff ff 	movq	-424(%rbp), %rdx
    324b:	48 89 10 	movq	%rdx, (%rax)
    324e:	83 85 40 fe ff ff 01 	addl	$1, -448(%rbp)
    3255:	83 bd 40 fe ff ff 03 	cmpl	$3, -448(%rbp)
    325c:	0f 8e 54 ff ff ff 	jle	-172 <.text+0x2966>
    3262:	48 8b 05 3f 49 20 00 	movq	2115903(%rip), %rax
    3269:	48 8b 00 	movq	(%rax), %rax
    326c:	48 89 05 5d 49 20 00 	movq	%rax, 2115933(%rip)
    3273:	48 8b 05 56 49 20 00 	movq	2115926(%rip), %rax
    327a:	48 89 05 f7 48 20 00 	movq	%rax, 2115831(%rip)
    3281:	48 8b 05 f0 48 20 00 	movq	2115824(%rip), %rax
    3288:	48 8b 00 	movq	(%rax), %rax
    328b:	48 89 05 e6 48 20 00 	movq	%rax, 2115814(%rip)
    3292:	c7 85 48 fe ff ff 01 00 00 00 	movl	$1, -440(%rbp)
    329c:	c7 85 4c fe ff ff 01 00 00 00 	movl	$1, -436(%rbp)
    32a6:	48 8d 85 70 fe ff ff 	leaq	-400(%rbp), %rax
    32ad:	48 89 85 60 fe ff ff 	movq	%rax, -416(%rbp)
    32b4:	48 8d 05 05 37 20 00 	leaq	2111237(%rip), %rax
    32bb:	48 89 85 68 fe ff ff 	movq	%rax, -408(%rbp)
    32c2:	48 8b 85 68 fe ff ff 	movq	-408(%rbp), %rax
    32c9:	0f b6 00 	movzbl	(%rax), %eax
    32cc:	88 85 3f fe ff ff 	movb	%al, -449(%rbp)
    32d2:	80 bd 3f fe ff ff 65 	cmpb	$101, -449(%rbp)
    32d9:	75 2a 	jne	42 <.text+0x2ab5>
    32db:	48 8b 85 68 fe ff ff 	movq	-408(%rbp), %rax
    32e2:	48 83 c0 01 	addq	$1, %rax
    32e6:	48 89 85 68 fe ff ff 	movq	%rax, -408(%rbp)
    32ed:	48 8b 85 60 fe ff ff 	movq	-416(%rbp), %rax
    32f4:	8b 10 	movl	(%rax), %edx
    32f6:	48 8b 85 60 fe ff ff 	movq	-416(%rbp), %rax
    32fd:	48 63 d2 	movslq	%edx, %rdx
    3300:	48 89 10 	movq	%rdx, (%rax)
    3303:	eb bd 	jmp	-67 <.text+0x2a72>
    3305:	80 bd 3f fe ff ff 90 	cmpb	$-112, -449(%rbp)
    330c:	75 52 	jne	82 <.text+0x2b10>
    330e:	48 8b 85 68 fe ff ff 	movq	-408(%rbp), %rax
    3315:	48 83 c0 01 	addq	$1, %rax
    3319:	48 89 85 68 fe ff ff 	movq	%rax, -408(%rbp)
    3320:	48 8b 85 60 fe ff ff 	movq	-416(%rbp), %rax
    3327:	48 8b 08 	movq	(%rax), %rcx
    332a:	48 8b 85 60 fe ff ff 	movq	-416(%rbp), %rax
    3331:	48 83 e8 08 	subq	$8, %rax
    3335:	48 8b 10 	movq	(%rax), %rdx
    3338:	48 8b 85 60 fe ff ff 	movq	-416(%rbp), %rax
    333f:	48 83 e8 08 	subq	$8, %rax
    3343:	48 01 ca 	addq	%rcx, %rdx
    3346:	48 89 10 	movq	%rdx, (%rax)
    3349:	48 8b 85 60 fe ff ff 	movq	-416(%rbp), %rax
    3350:	48 83 e8 08 	subq	$8, %rax
    3354:	48 89 85 60 fe ff ff 	movq	%rax, -416(%rbp)
    335b:	e9 62 ff ff ff 	jmp	-158 <.text+0x2a72>
    3360:	80 bd 3f fe ff ff b6 	cmpb	$-74, -449(%rbp)
    3367:	75 2e 	jne	46 <.text+0x2b47>
    3369:	48 8b 85 68 fe ff ff 	movq	-408(%rbp), %rax
    3370:	48 83 c0 01 	addq	$1, %rax
    3374:	48 89 85 68 fe ff ff 	movq	%rax, -408(%rbp)
    337b:	48 8b 85 60 fe ff ff 	movq	-416(%rbp), %rax
    3382:	48 8b 10 	movq	(%rax), %rdx
    3385:	48 8b 85 60 fe ff ff 	movq	-416(%rbp), %rax
    338c:	48 8b 12 	movq	(%rdx), %rdx
    338f:	48 89 10 	movq	%rdx, (%rax)
    3392:	e9 2b ff ff ff 	jmp	-213 <.text+0x2a72>
    3397:	80 bd 3f fe ff ff c1 	cmpb	$-63, -449(%rbp)
    339e:	75 2a 	jne	42 <.text+0x2b7a>
    33a0:	48 8b 85 68 fe ff ff 	movq	-408(%rbp), %rax
    33a7:	48 83 c0 01 	addq	$1, %rax
    33ab:	48 89 85 68 fe ff ff 	movq	%rax, -408(%rbp)
    33b2:	48 8b 85 60 fe ff ff 	movq	-416(%rbp), %rax
    33b9:	48 8b 10 	movq	(%rax), %rdx
    33bc:	48 8b 85 60 fe ff ff 	movq	-416(%rbp), %rax
    33c3:	88 10 	movb	%dl, (%rax)
    33c5:	e9 f8 fe ff ff 	jmp	-264 <.text+0x2a72>
    33ca:	80 bd 3f fe ff ff 0f 	cmpb	$15, -449(%rbp)
    33d1:	75 53 	jne	83 <.text+0x2bd6>
    33d3:	48 8b 85 68 fe ff ff 	movq	-408(%rbp), %rax
    33da:	48 83 c0 01 	addq	$1, %rax
    33de:	48 89 85 68 fe ff ff 	movq	%rax, -408(%rbp)
    33e5:	48 8b 85 68 fe ff ff 	movq	-408(%rbp), %rax
    33ec:	48 8b 95 60 fe ff ff 	movq	-416(%rbp), %rdx
    33f3:	48 83 c2 08 	addq	$8, %rdx
    33f7:	48 8b 00 	movq	(%rax), %rax
    33fa:	48 89 02 	movq	%rax, (%rdx)
    33fd:	48 8b 85 60 fe ff ff 	movq	-416(%rbp), %rax
    3404:	48 83 c0 08 	addq	$8, %rax
    3408:	48 89 85 60 fe ff ff 	movq	%rax, -416(%rbp)
    340f:	48 8b 85 68 fe ff ff 	movq	-408(%rbp), %rax
    3416:	48 83 c0 08 	addq	$8, %rax
    341a:	48 89 85 68 fe ff ff 	movq	%rax, -408(%rbp)
    3421:	e9 9c fe ff ff 	jmp	-356 <.text+0x2a72>
    3426:	80 bd 3f fe ff ff f1 	cmpb	$-15, -449(%rbp)
    342d:	75 52 	jne	82 <.text+0x2c31>
    342f:	48 8b 85 68 fe ff ff 	movq	-408(%rbp), %rax
    3436:	48 83 c0 01 	addq	$1, %rax
    343a:	48 89 85 68 fe ff ff 	movq	%rax, -408(%rbp)
    3441:	48 8b 85 60 fe ff ff 	movq	-416(%rbp), %rax
    3448:	48 83 e8 08 	subq	$8, %rax
    344c:	48 8b 08 	movq	(%rax), %rcx
    344f:	48 8b 85 60 fe ff ff 	movq	-416(%rbp), %rax
    3456:	48 8b 10 	movq	(%rax), %rdx
    3459:	48 8b 85 60 fe ff ff 	movq	-416(%rbp), %rax
    3460:	48 83 e8 08 	subq	$8, %rax
    3464:	48 01 ca 	addq	%rcx, %rdx
    3467:	48 89 10 	movq	%rdx, (%rax)
    346a:	48 8b 85 60 fe ff ff 	movq	-416(%rbp), %rax
    3471:	48 83 e8 08 	subq	$8, %rax
    3475:	48 89 85 60 fe ff ff 	movq	%rax, -416(%rbp)
    347c:	e9 41 fe ff ff 	jmp	-447 <.text+0x2a72>
    3481:	80 bd 3f fe ff ff ad 	cmpb	$-83, -449(%rbp)
    3488:	75 53 	jne	83 <.text+0x2c8d>
    348a:	48 8b 85 68 fe ff ff 	movq	-408(%rbp), %rax
    3491:	48 83 c0 01 	addq	$1, %rax
    3495:	48 89 85 68 fe ff ff 	movq	%rax, -408(%rbp)
    349c:	48 8b 85 60 fe ff ff 	movq	-416(%rbp), %rax
    34a3:	48 8b 08 	movq	(%rax), %rcx
    34a6:	48 8b 85 60 fe ff ff 	movq	-416(%rbp), %rax
    34ad:	48 83 e8 08 	subq	$8, %rax
    34b1:	48 8b 00 	movq	(%rax), %rax
    34b4:	48 8b 95 60 fe ff ff 	movq	-416(%rbp), %rdx
    34bb:	48 83 ea 08 	subq	$8, %rdx
    34bf:	48 0f af c1 	imulq	%rcx, %rax
    34c3:	48 89 02 	movq	%rax, (%rdx)
    34c6:	48 8b 85 60 fe ff ff 	movq	-416(%rbp), %rax
    34cd:	48 83 e8 08 	subq	$8, %rax
    34d1:	48 89 85 60 fe ff ff 	movq	%rax, -416(%rbp)
    34d8:	e9 e5 fd ff ff 	jmp	-539 <.text+0x2a72>
    34dd:	80 bd 3f fe ff ff 67 	cmpb	$103, -449(%rbp)
    34e4:	75 5f 	jne	95 <.text+0x2cf5>
    34e6:	48 8b 85 68 fe ff ff 	movq	-408(%rbp), %rax
    34ed:	48 83 c0 01 	addq	$1, %rax
    34f1:	48 89 85 68 fe ff ff 	movq	%rax, -408(%rbp)
    34f8:	48 8b 85 68 fe ff ff 	movq	-408(%rbp), %rax
    34ff:	8b 00 	movl	(%rax), %eax
    3501:	48 63 d0 	movslq	%eax, %rdx
    3504:	48 8b 85 60 fe ff ff 	movq	-416(%rbp), %rax
    350b:	48 83 c0 08 	addq	$8, %rax
    350f:	48 8d 8d 70 ff ff ff 	leaq	-144(%rbp), %rcx
    3516:	48 01 ca 	addq	%rcx, %rdx
    3519:	48 89 10 	movq	%rdx, (%rax)
    351c:	48 8b 85 60 fe ff ff 	movq	-416(%rbp), %rax
    3523:	48 83 c0 08 	addq	$8, %rax
    3527:	48 89 85 60 fe ff ff 	movq	%rax, -416(%rbp)
    352e:	48 8b 85 68 fe ff ff 	movq	-408(%rbp), %rax
    3535:	48 83 c0 04 	addq	$4, %rax
    3539:	48 89 85 68 fe ff ff 	movq	%rax, -408(%rbp)
    3540:	e9 7d fd ff ff 	jmp	-643 <.text+0x2a72>
    3545:	80 bd 3f fe ff ff 72 	cmpb	$114, -449(%rbp)
    354c:	75 4e 	jne	78 <.text+0x2d4c>
    354e:	48 8b 85 68 fe ff ff 	movq	-408(%rbp), %rax
    3555:	48 83 c0 01 	addq	$1, %rax
    3559:	48 89 85 68 fe ff ff 	movq	%rax, -408(%rbp)
    3560:	48 8b 85 60 fe ff ff 	movq	-416(%rbp), %rax
    3567:	8b 08 	movl	(%rax), %ecx
    3569:	48 8b 85 60 fe ff ff 	movq	-416(%rbp), %rax
    3570:	48 83 e8 08 	subq	$8, %rax
    3574:	8b 10 	movl	(%rax), %edx
    3576:	48 8b 85 60 fe ff ff 	movq	-416(%rbp), %rax
    357d:	48 83 e8 08 	subq	$8, %rax
    3581:	01 ca 	addl	%ecx, %edx
    3583:	89 10 	movl	%edx, (%rax)
    3585:	48 8b 85 60 fe ff ff 	movq	-416(%rbp), %rax
    358c:	48 83 e8 08 	subq	$8, %rax
    3590:	48 89 85 60 fe ff ff 	movq	%rax, -416(%rbp)
    3597:	e9 26 fd ff ff 	jmp	-730 <.text+0x2a72>
    359c:	80 bd 3f fe ff ff 52 	cmpb	$82, -449(%rbp)
    35a3:	75 2d 	jne	45 <.text+0x2d82>
    35a5:	48 8b 85 68 fe ff ff 	movq	-408(%rbp), %rax
    35ac:	48 83 c0 01 	addq	$1, %rax
    35b0:	48 89 85 68 fe ff ff 	movq	%rax, -408(%rbp)
    35b7:	48 8b 85 60 fe ff ff 	movq	-416(%rbp), %rax
    35be:	0f b6 10 	movzbl	(%rax), %edx
    35c1:	48 8b 85 60 fe ff ff 	movq	-416(%rbp), %rax
    35c8:	0f b6 d2 	movzbl	%dl, %edx
    35cb:	89 10 	movl	%edx, (%rax)
    35cd:	e9 f0 fc ff ff 	jmp	-784 <.text+0x2a72>
    35d2:	80 bd 3f fe ff ff 6e 	cmpb	$110, -449(%rbp)
    35d9:	75 2b 	jne	43 <.text+0x2db6>
    35db:	48 8b 85 68 fe ff ff 	movq	-408(%rbp), %rax
    35e2:	48 83 c0 01 	addq	$1, %rax
    35e6:	48 89 85 68 fe ff ff 	movq	%rax, -408(%rbp)
    35ed:	48 8b 95 60 fe ff ff 	movq	-416(%rbp), %rdx
    35f4:	48 8b 85 60 fe ff ff 	movq	-416(%rbp), %rax
    35fb:	48 8b 12 	movq	(%rdx), %rdx
    35fe:	48 89 10 	movq	%rdx, (%rax)
    3601:	e9 bc fc ff ff 	jmp	-836 <.text+0x2a72>
    3606:	80 bd 3f fe ff ff b4 	cmpb	$-76, -449(%rbp)
    360d:	75 29 	jne	41 <.text+0x2de8>
    360f:	48 8b 85 68 fe ff ff 	movq	-408(%rbp), %rax
    3616:	48 83 c0 01 	addq	$1, %rax
    361a:	48 89 85 68 fe ff ff 	movq	%rax, -408(%rbp)
    3621:	48 8b 85 60 fe ff ff 	movq	-416(%rbp), %rax
    3628:	8b 10 	movl	(%rax), %edx
    362a:	48 8b 85 60 fe ff ff 	movq	-416(%rbp), %rax
    3631:	88 10 	movb	%dl, (%rax)
    3633:	e9 8a fc ff ff 	jmp	-886 <.text+0x2a72>
    3638:	80 bd 3f fe ff ff 80 	cmpb	$-128, -449(%rbp)
    363f:	75 44 	jne	68 <.text+0x2e35>
    3641:	48 8b 85 68 fe ff ff 	movq	-408(%rbp), %rax
    3648:	48 83 c0 01 	addq	$1, %rax
    364c:	48 89 85 68 fe ff ff 	movq	%rax, -408(%rbp)
    3653:	48 8b 95 60 fe ff ff 	movq	-416(%rbp), %rdx
    365a:	48 8b 85 60 fe ff ff 	movq	-416(%rbp), %rax
    3661:	48 83 e8 08 	subq	$8, %rax
    3665:	48 8b 00 	movq	(%rax), %rax
    3668:	48 8b 12 	movq	(%rdx), %rdx
    366b:	48 89 10 	movq	%rdx, (%rax)
    366e:	48 8b 85 60 fe ff ff 	movq	-416(%rbp), %rax
    3675:	48 83 e8 10 	subq	$16, %rax
    3679:	48 89 85 60 fe ff ff 	movq	%rax, -416(%rbp)
    3680:	e9 3d fc ff ff 	jmp	-963 <.text+0x2a72>
    3685:	80 bd 3f fe ff ff 39 	cmpb	$57, -449(%rbp)
    368c:	75 4f 	jne	79 <.text+0x2e8d>
    368e:	48 8b 85 68 fe ff ff 	movq	-408(%rbp), %rax
    3695:	48 83 c0 01 	addq	$1, %rax
    3699:	48 89 85 68 fe ff ff 	movq	%rax, -408(%rbp)
    36a0:	48 8b 85 60 fe ff ff 	movq	-416(%rbp), %rax
    36a7:	8b 08 	movl	(%rax), %ecx
    36a9:	48 8b 85 60 fe ff ff 	movq	-416(%rbp), %rax
    36b0:	48 83 e8 08 	subq	$8, %rax
    36b4:	8b 00 	movl	(%rax), %eax
    36b6:	48 8b 95 60 fe ff ff 	movq	-416(%rbp), %rdx
    36bd:	48 83 ea 08 	subq	$8, %rdx
    36c1:	0f af c1 	imull	%ecx, %eax
    36c4:	89 02 	movl	%eax, (%rdx)
    36c6:	48 8b 85 60 fe ff ff 	movq	-416(%rbp), %rax
    36cd:	48 83 e8 08 	subq	$8, %rax
    36d1:	48 89 85 60 fe ff ff 	movq	%rax, -416(%rbp)
    36d8:	e9 e5 fb ff ff 	jmp	-1051 <.text+0x2a72>
    36dd:	80 bd 3f fe ff ff b8 	cmpb	$-72, -449(%rbp)
    36e4:	75 2b 	jne	43 <.text+0x2ec1>
    36e6:	48 8b 85 68 fe ff ff 	movq	-408(%rbp), %rax
    36ed:	48 83 c0 01 	addq	$1, %rax
    36f1:	48 89 85 68 fe ff ff 	movq	%rax, -408(%rbp)
    36f8:	48 8b 85 60 fe ff ff 	movq	-416(%rbp), %rax
    36ff:	48 8b 10 	movq	(%rax), %rdx
    3702:	48 8b 85 60 fe ff ff 	movq	-416(%rbp), %rax
    3709:	48 89 10 	movq	%rdx, (%rax)
    370c:	e9 b1 fb ff ff 	jmp	-1103 <.text+0x2a72>
    3711:	80 bd 3f fe ff ff ae 	cmpb	$-82, -449(%rbp)
    3718:	75 72 	jne	114 <.text+0x2f3c>
    371a:	48 8b 85 68 fe ff ff 	movq	-408(%rbp), %rax
    3721:	48 83 c0 01 	addq	$1, %rax
    3725:	48 89 85 68 fe ff ff 	movq	%rax, -408(%rbp)
    372c:	48 8b 85 68 fe ff ff 	movq	-408(%rbp), %rax
    3733:	8b 00 	movl	(%rax), %eax
    3735:	83 f8 01 	cmpl	$1, %eax
    3738:	75 3b 	jne	59 <.text+0x2f25>
    373a:	48 8d 85 70 ff ff ff 	leaq	-144(%rbp), %rax
    3741:	48 83 c0 38 	addq	$56, %rax
    3745:	48 8b 08 	movq	(%rax), %rcx
    3748:	48 8d 85 70 ff ff ff 	leaq	-144(%rbp), %rax
    374f:	48 83 c0 2c 	addq	$44, %rax
    3753:	48 8b 00 	movq	(%rax), %rax
    3756:	48 8d 9d 70 ff ff ff 	leaq	-144(%rbp), %rbx
    375d:	48 83 c3 48 	addq	$72, %rbx
    3761:	ba 64 00 00 00 	movl	$100, %edx
    3766:	48 89 ce 	movq	%rcx, %rsi
    3769:	48 89 c7 	movq	%rax, %rdi
    376c:	e8 65 06 00 00 	callq	1637 <.text+0x3586>
    3771:	48 89 03 	movq	%rax, (%rbx)
    3774:	90 	nop
    3775:	48 8b 85 68 fe ff ff 	movq	-408(%rbp), %rax
    377c:	48 83 c0 04 	addq	$4, %rax
    3780:	48 89 85 68 fe ff ff 	movq	%rax, -408(%rbp)
    3787:	e9 36 fb ff ff 	jmp	-1226 <.text+0x2a72>
    378c:	80 bd 3f fe ff ff 42 	cmpb	$66, -449(%rbp)
    3793:	75 2b 	jne	43 <.text+0x2f70>
    3795:	48 8b 85 68 fe ff ff 	movq	-408(%rbp), %rax
    379c:	48 83 c0 01 	addq	$1, %rax
    37a0:	48 89 85 68 fe ff ff 	movq	%rax, -408(%rbp)
    37a7:	90 	nop
    37a8:	48 8b 45 e8 	movq	-24(%rbp), %rax
    37ac:	64 48 33 04 25 28 00 00 00 	xorq	%fs:40, %rax
    37b5:	0f 84 11 06 00 00 	je	1553 <.text+0x357c>
    37bb:	e9 07 06 00 00 	jmp	1543 <.text+0x3577>
    37c0:	80 bd 3f fe ff ff 66 	cmpb	$102, -449(%rbp)
    37c7:	75 52 	jne	82 <.text+0x2fcb>
    37c9:	48 8b 85 68 fe ff ff 	movq	-408(%rbp), %rax
    37d0:	48 83 c0 01 	addq	$1, %rax
    37d4:	48 89 85 68 fe ff ff 	movq	%rax, -408(%rbp)
    37db:	48 8b 85 60 fe ff ff 	movq	-416(%rbp), %rax
    37e2:	48 8b 08 	movq	(%rax), %rcx
    37e5:	48 8b 85 60 fe ff ff 	movq	-416(%rbp), %rax
    37ec:	48 83 e8 08 	subq	$8, %rax
    37f0:	48 8b 10 	movq	(%rax), %rdx
    37f3:	48 8b 85 60 fe ff ff 	movq	-416(%rbp), %rax
    37fa:	48 83 e8 08 	subq	$8, %rax
    37fe:	48 21 ca 	andq	%rcx, %rdx
    3801:	48 89 10 	movq	%rdx, (%rax)
    3804:	48 8b 85 60 fe ff ff 	movq	-416(%rbp), %rax
    380b:	48 83 e8 08 	subq	$8, %rax
    380f:	48 89 85 60 fe ff ff 	movq	%rax, -416(%rbp)
    3816:	e9 a7 fa ff ff 	jmp	-1369 <.text+0x2a72>
    381b:	80 bd 3f fe ff ff 83 	cmpb	$-125, -449(%rbp)
    3822:	75 56 	jne	86 <.text+0x302a>
    3824:	48 8b 85 68 fe ff ff 	movq	-408(%rbp), %rax
    382b:	48 83 c0 01 	addq	$1, %rax
    382f:	48 89 85 68 fe ff ff 	movq	%rax, -408(%rbp)
    3836:	48 8b 85 60 fe ff ff 	movq	-416(%rbp), %rax
    383d:	48 8b 30 	movq	(%rax), %rsi
    3840:	48 8b 85 60 fe ff ff 	movq	-416(%rbp), %rax
    3847:	48 83 e8 08 	subq	$8, %rax
    384b:	8b 00 	movl	(%rax), %eax
    384d:	48 8b 95 60 fe ff ff 	movq	-416(%rbp), %rdx
    3854:	48 83 ea 08 	subq	$8, %rdx
    3858:	89 c1 	movl	%eax, %ecx
    385a:	48 d3 ee 	shrq	%cl, %rsi
    385d:	48 89 f0 	movq	%rsi, %rax
    3860:	48 89 02 	movq	%rax, (%rdx)
    3863:	48 8b 85 60 fe ff ff 	movq	-416(%rbp), %rax
    386a:	48 83 e8 08 	subq	$8, %rax
    386e:	48 89 85 60 fe ff ff 	movq	%rax, -416(%rbp)
    3875:	e9 48 fa ff ff 	jmp	-1464 <.text+0x2a72>
    387a:	80 bd 3f fe ff ff 12 	cmpb	$18, -449(%rbp)
    3881:	75 7c 	jne	124 <.text+0x30af>
    3883:	48 8b 85 68 fe ff ff 	movq	-408(%rbp), %rax
    388a:	48 83 c0 01 	addq	$1, %rax
    388e:	48 89 85 68 fe ff ff 	movq	%rax, -408(%rbp)
    3895:	48 8b 85 68 fe ff ff 	movq	-408(%rbp), %rax
    389c:	8b 00 	movl	(%rax), %eax
    389e:	85 c0 	testl	%eax, %eax
    38a0:	74 07 	je	7 <.text+0x3059>
    38a2:	83 f8 01 	cmpl	$1, %eax
    38a5:	74 19 	je	25 <.text+0x3070>
    38a7:	eb 2d 	jmp	45 <.text+0x3086>
    38a9:	48 8b 85 60 fe ff ff 	movq	-416(%rbp), %rax
    38b0:	48 8d 50 08 	leaq	8(%rax), %rdx
    38b4:	48 8d 85 28 fe ff ff 	leaq	-472(%rbp), %rax
    38bb:	48 89 02 	movq	%rax, (%rdx)
    38be:	eb 16 	jmp	22 <.text+0x3086>
    38c0:	48 8b 85 60 fe ff ff 	movq	-416(%rbp), %rax
    38c7:	48 8d 50 08 	leaq	8(%rax), %rdx
    38cb:	48 8d 85 20 fe ff ff 	leaq	-480(%rbp), %rax
    38d2:	48 89 02 	movq	%rax, (%rdx)
    38d5:	90 	nop
    38d6:	48 8b 85 60 fe ff ff 	movq	-416(%rbp), %rax
    38dd:	48 83 c0 08 	addq	$8, %rax
    38e1:	48 89 85 60 fe ff ff 	movq	%rax, -416(%rbp)
    38e8:	48 8b 85 68 fe ff ff 	movq	-408(%rbp), %rax
    38ef:	48 83 c0 04 	addq	$4, %rax
    38f3:	48 89 85 68 fe ff ff 	movq	%rax, -408(%rbp)
    38fa:	e9 c3 f9 ff ff 	jmp	-1597 <.text+0x2a72>
    38ff:	80 bd 3f fe ff ff 2a 	cmpb	$42, -449(%rbp)
    3906:	75 50 	jne	80 <.text+0x3108>
    3908:	48 8b 85 68 fe ff ff 	movq	-408(%rbp), %rax
    390f:	48 83 c0 01 	addq	$1, %rax
    3913:	48 89 85 68 fe ff ff 	movq	%rax, -408(%rbp)
    391a:	48 8b 85 60 fe ff ff 	movq	-416(%rbp), %rax
    3921:	48 83 e8 08 	subq	$8, %rax
    3925:	8b 08 	movl	(%rax), %ecx
    3927:	48 8b 85 60 fe ff ff 	movq	-416(%rbp), %rax
    392e:	8b 10 	movl	(%rax), %edx
    3930:	48 8b 85 60 fe ff ff 	movq	-416(%rbp), %rax
    3937:	48 83 e8 08 	subq	$8, %rax
    393b:	29 d1 	subl	%edx, %ecx
    393d:	89 ca 	movl	%ecx, %edx
    393f:	89 10 	movl	%edx, (%rax)
    3941:	48 8b 85 60 fe ff ff 	movq	-416(%rbp), %rax
    3948:	48 83 e8 08 	subq	$8, %rax
    394c:	48 89 85 60 fe ff ff 	movq	%rax, -416(%rbp)
    3953:	e9 6a f9 ff ff 	jmp	-1686 <.text+0x2a72>
    3958:	80 bd 3f fe ff ff e5 	cmpb	$-27, -449(%rbp)
    395f:	75 66 	jne	102 <.text+0x3177>
    3961:	48 8b 85 68 fe ff ff 	movq	-408(%rbp), %rax
    3968:	48 83 c0 01 	addq	$1, %rax
    396c:	48 89 85 68 fe ff ff 	movq	%rax, -408(%rbp)
    3973:	48 8b 85 60 fe ff ff 	movq	-416(%rbp), %rax
    397a:	8b 00 	movl	(%rax), %eax
    397c:	85 c0 	testl	%eax, %eax
    397e:	74 1e 	je	30 <.text+0x314e>
    3980:	48 8b 95 68 fe ff ff 	movq	-408(%rbp), %rdx
    3987:	48 8b 85 68 fe ff ff 	movq	-408(%rbp), %rax
    398e:	8b 00 	movl	(%rax), %eax
    3990:	48 98 	cltq
    3992:	48 01 d0 	addq	%rdx, %rax
    3995:	48 89 85 68 fe ff ff 	movq	%rax, -408(%rbp)
    399c:	eb 12 	jmp	18 <.text+0x3160>
    399e:	48 8b 85 68 fe ff ff 	movq	-408(%rbp), %rax
    39a5:	48 83 c0 04 	addq	$4, %rax
    39a9:	48 89 85 68 fe ff ff 	movq	%rax, -408(%rbp)
    39b0:	48 8b 85 60 fe ff ff 	movq	-416(%rbp), %rax
    39b7:	48 83 e8 08 	subq	$8, %rax
    39bb:	48 89 85 60 fe ff ff 	movq	%rax, -416(%rbp)
    39c2:	e9 fb f8 ff ff 	jmp	-1797 <.text+0x2a72>
    39c7:	80 bd 3f fe ff ff 74 	cmpb	$116, -449(%rbp)
    39ce:	75 53 	jne	83 <.text+0x31d3>
    39d0:	48 8b 85 68 fe ff ff 	movq	-408(%rbp), %rax
    39d7:	48 83 c0 01 	addq	$1, %rax
    39db:	48 89 85 68 fe ff ff 	movq	%rax, -408(%rbp)
    39e2:	48 8b 85 68 fe ff ff 	movq	-408(%rbp), %rax
    39e9:	48 8b 95 60 fe ff ff 	movq	-416(%rbp), %rdx
    39f0:	48 83 c2 08 	addq	$8, %rdx
    39f4:	48 8b 00 	movq	(%rax), %rax
    39f7:	48 89 02 	movq	%rax, (%rdx)
    39fa:	48 8b 85 60 fe ff ff 	movq	-416(%rbp), %rax
    3a01:	48 83 c0 08 	addq	$8, %rax
    3a05:	48 89 85 60 fe ff ff 	movq	%rax, -416(%rbp)
    3a0c:	48 8b 85 68 fe ff ff 	movq	-408(%rbp), %rax
    3a13:	48 83 c0 08 	addq	$8, %rax
    3a17:	48 89 85 68 fe ff ff 	movq	%rax, -408(%rbp)
    3a1e:	e9 9f f8 ff ff 	jmp	-1889 <.text+0x2a72>
    3a23:	80 bd 3f fe ff ff a7 	cmpb	$-89, -449(%rbp)
    3a2a:	75 54 	jne	84 <.text+0x3230>
    3a2c:	48 8b 85 68 fe ff ff 	movq	-408(%rbp), %rax
    3a33:	48 83 c0 01 	addq	$1, %rax
    3a37:	48 89 85 68 fe ff ff 	movq	%rax, -408(%rbp)
    3a3e:	48 8b 85 60 fe ff ff 	movq	-416(%rbp), %rax
    3a45:	48 83 e8 08 	subq	$8, %rax
    3a49:	48 8b 08 	movq	(%rax), %rcx
    3a4c:	48 8b 85 60 fe ff ff 	movq	-416(%rbp), %rax
    3a53:	8b 00 	movl	(%rax), %eax
    3a55:	48 63 d0 	movslq	%eax, %rdx
    3a58:	48 8b 85 60 fe ff ff 	movq	-416(%rbp), %rax
    3a5f:	48 83 e8 08 	subq	$8, %rax
    3a63:	48 01 ca 	addq	%rcx, %rdx
    3a66:	48 89 10 	movq	%rdx, (%rax)
    3a69:	48 8b 85 60 fe ff ff 	movq	-416(%rbp), %rax
    3a70:	48 83 e8 08 	subq	$8, %rax
    3a74:	48 89 85 60 fe ff ff 	movq	%rax, -416(%rbp)
    3a7b:	e9 42 f8 ff ff 	jmp	-1982 <.text+0x2a72>
    3a80:	80 bd 3f fe ff ff 1c 	cmpb	$28, -449(%rbp)
    3a87:	75 53 	jne	83 <.text+0x328c>
    3a89:	48 8b 85 68 fe ff ff 	movq	-408(%rbp), %rax
    3a90:	48 83 c0 01 	addq	$1, %rax
    3a94:	48 89 85 68 fe ff ff 	movq	%rax, -408(%rbp)
    3a9b:	48 8b 85 68 fe ff ff 	movq	-408(%rbp), %rax
    3aa2:	48 8b 95 60 fe ff ff 	movq	-416(%rbp), %rdx
    3aa9:	48 83 c2 08 	addq	$8, %rdx
    3aad:	48 8b 00 	movq	(%rax), %rax
    3ab0:	48 89 02 	movq	%rax, (%rdx)
    3ab3:	48 8b 85 60 fe ff ff 	movq	-416(%rbp), %rax
    3aba:	48 83 c0 08 	addq	$8, %rax
    3abe:	48 89 85 60 fe ff ff 	movq	%rax, -416(%rbp)
    3ac5:	48 8b 85 68 fe ff ff 	movq	-408(%rbp), %rax
    3acc:	48 83 c0 08 	addq	$8, %rax
    3ad0:	48 89 85 68 fe ff ff 	movq	%rax, -408(%rbp)
    3ad7:	e9 e6 f7 ff ff 	jmp	-2074 <.text+0x2a72>
    3adc:	80 bd 3f fe ff ff 8f 	cmpb	$-113, -449(%rbp)
    3ae3:	75 57 	jne	87 <.text+0x32ec>
    3ae5:	48 8b 85 68 fe ff ff 	movq	-408(%rbp), %rax
    3aec:	48 83 c0 01 	addq	$1, %rax
    3af0:	48 89 85 68 fe ff ff 	movq	%rax, -408(%rbp)
    3af7:	48 8b 85 60 fe ff ff 	movq	-416(%rbp), %rax
    3afe:	48 8b 10 	movq	(%rax), %rdx
    3b01:	48 8b 85 60 fe ff ff 	movq	-416(%rbp), %rax
    3b08:	48 83 e8 08 	subq	$8, %rax
    3b0c:	48 8b 00 	movq	(%rax), %rax
    3b0f:	48 39 c2 	cmpq	%rax, %rdx
    3b12:	0f 92 c1 	setb	%cl
    3b15:	48 8b 85 60 fe ff ff 	movq	-416(%rbp), %rax
    3b1c:	48 8d 50 f8 	leaq	-8(%rax), %rdx
    3b20:	0f b6 c1 	movzbl	%cl, %eax
    3b23:	89 02 	movl	%eax, (%rdx)
    3b25:	48 8b 85 60 fe ff ff 	movq	-416(%rbp), %rax
    3b2c:	48 83 e8 08 	subq	$8, %rax
    3b30:	48 89 85 60 fe ff ff 	movq	%rax, -416(%rbp)
    3b37:	e9 86 f7 ff ff 	jmp	-2170 <.text+0x2a72>
    3b3c:	80 bd 3f fe ff ff 69 	cmpb	$105, -449(%rbp)
    3b43:	75 2e 	jne	46 <.text+0x3323>
    3b45:	48 8b 85 68 fe ff ff 	movq	-408(%rbp), %rax
    3b4c:	48 83 c0 01 	addq	$1, %rax
    3b50:	48 89 85 68 fe ff ff 	movq	%rax, -408(%rbp)
    3b57:	48 8b 85 60 fe ff ff 	movq	-416(%rbp), %rax
    3b5e:	48 8b 10 	movq	(%rax), %rdx
    3b61:	48 8b 85 60 fe ff ff 	movq	-416(%rbp), %rax
    3b68:	48 8b 12 	movq	(%rdx), %rdx
    3b6b:	48 89 10 	movq	%rdx, (%rax)
    3b6e:	e9 4f f7 ff ff 	jmp	-2225 <.text+0x2a72>
    3b73:	80 bd 3f fe ff ff 19 	cmpb	$25, -449(%rbp)
    3b7a:	75 33 	jne	51 <.text+0x335f>
    3b7c:	48 8b 85 68 fe ff ff 	movq	-408(%rbp), %rax
    3b83:	48 83 c0 01 	addq	$1, %rax
    3b87:	48 89 85 68 fe ff ff 	movq	%rax, -408(%rbp)
    3b8e:	48 8b 95 68 fe ff ff 	movq	-408(%rbp), %rdx
    3b95:	48 8b 85 68 fe ff ff 	movq	-408(%rbp), %rax
    3b9c:	8b 00 	movl	(%rax), %eax
    3b9e:	48 98 	cltq
    3ba0:	48 01 d0 	addq	%rdx, %rax
    3ba3:	48 89 85 68 fe ff ff 	movq	%rax, -408(%rbp)
    3baa:	e9 13 f7 ff ff 	jmp	-2285 <.text+0x2a72>
    3baf:	80 bd 3f fe ff ff af 	cmpb	$-81, -449(%rbp)
    3bb6:	75 52 	jne	82 <.text+0x33ba>
    3bb8:	48 8b 85 68 fe ff ff 	movq	-408(%rbp), %rax
    3bbf:	48 83 c0 01 	addq	$1, %rax
    3bc3:	48 89 85 68 fe ff ff 	movq	%rax, -408(%rbp)
    3bca:	48 8b 85 60 fe ff ff 	movq	-416(%rbp), %rax
    3bd1:	48 8b 08 	movq	(%rax), %rcx
    3bd4:	48 8b 85 60 fe ff ff 	movq	-416(%rbp), %rax
    3bdb:	48 83 e8 08 	subq	$8, %rax
    3bdf:	48 8b 10 	movq	(%rax), %rdx
    3be2:	48 8b 85 60 fe ff ff 	movq	-416(%rbp), %rax
    3be9:	48 83 e8 08 	subq	$8, %rax
    3bed:	48 01 ca 	addq	%rcx, %rdx
    3bf0:	48 89 10 	movq	%rdx, (%rax)
    3bf3:	48 8b 85 60 fe ff ff 	movq	-416(%rbp), %rax
    3bfa:	48 83 e8 08 	subq	$8, %rax
    3bfe:	48 89 85 60 fe ff ff 	movq	%rax, -416(%rbp)
    3c05:	e9 b8 f6 ff ff 	jmp	-2376 <.text+0x2a72>
    3c0a:	80 bd 3f fe ff ff fb 	cmpb	$-5, -449(%rbp)
    3c11:	75 42 	jne	66 <.text+0x3405>
    3c13:	48 8b 85 68 fe ff ff 	movq	-408(%rbp), %rax
    3c1a:	48 83 c0 01 	addq	$1, %rax
    3c1e:	48 89 85 68 fe ff ff 	movq	%rax, -408(%rbp)
    3c25:	48 8b 85 60 fe ff ff 	movq	-416(%rbp), %rax
    3c2c:	48 8d 50 f8 	leaq	-8(%rax), %rdx
    3c30:	48 8b 85 60 fe ff ff 	movq	-416(%rbp), %rax
    3c37:	48 8b 00 	movq	(%rax), %rax
    3c3a:	8b 12 	movl	(%rdx), %edx
    3c3c:	89 10 	movl	%edx, (%rax)
    3c3e:	48 8b 85 60 fe ff ff 	movq	-416(%rbp), %rax
    3c45:	48 83 e8 10 	subq	$16, %rax
    3c49:	48 89 85 60 fe ff ff 	movq	%rax, -416(%rbp)
    3c50:	e9 6d f6 ff ff 	jmp	-2451 <.text+0x2a72>
    3c55:	80 bd 3f fe ff ff 58 	cmpb	$88, -449(%rbp)
    3c5c:	75 51 	jne	81 <.text+0x345f>
    3c5e:	48 8b 85 68 fe ff ff 	movq	-408(%rbp), %rax
    3c65:	48 83 c0 01 	addq	$1, %rax
    3c69:	48 89 85 68 fe ff ff 	movq	%rax, -408(%rbp)
    3c70:	48 8b 85 68 fe ff ff 	movq	-408(%rbp), %rax
    3c77:	48 8b 95 60 fe ff ff 	movq	-416(%rbp), %rdx
    3c7e:	48 83 c2 08 	addq	$8, %rdx
    3c82:	8b 00 	movl	(%rax), %eax
    3c84:	89 02 	movl	%eax, (%rdx)
    3c86:	48 8b 85 60 fe ff ff 	movq	-416(%rbp), %rax
    3c8d:	48 83 c0 08 	addq	$8, %rax
    3c91:	48 89 85 60 fe ff ff 	movq	%rax, -416(%rbp)
    3c98:	48 8b 85 68 fe ff ff 	movq	-408(%rbp), %rax
    3c9f:	48 83 c0 04 	addq	$4, %rax
    3ca3:	48 89 85 68 fe ff ff 	movq	%rax, -408(%rbp)
    3caa:	e9 13 f6 ff ff 	jmp	-2541 <.text+0x2a72>
    3caf:	80 bd 3f fe ff ff f9 	cmpb	$-7, -449(%rbp)
    3cb6:	75 2d 	jne	45 <.text+0x3495>
    3cb8:	48 8b 85 68 fe ff ff 	movq	-408(%rbp), %rax
    3cbf:	48 83 c0 01 	addq	$1, %rax
    3cc3:	48 89 85 68 fe ff ff 	movq	%rax, -408(%rbp)
    3cca:	48 8b 85 60 fe ff ff 	movq	-416(%rbp), %rax
    3cd1:	48 8b 10 	movq	(%rax), %rdx
    3cd4:	48 8b 85 60 fe ff ff 	movq	-416(%rbp), %rax
    3cdb:	0f b6 12 	movzbl	(%rdx), %edx
    3cde:	88 10 	movb	%dl, (%rax)
    3ce0:	e9 dd f5 ff ff 	jmp	-2595 <.text+0x2a72>
    3ce5:	80 bd 3f fe ff ff 91 	cmpb	$-111, -449(%rbp)
    3cec:	75 2c 	jne	44 <.text+0x34ca>
    3cee:	48 8b 85 68 fe ff ff 	movq	-408(%rbp), %rax
    3cf5:	48 83 c0 01 	addq	$1, %rax
    3cf9:	48 89 85 68 fe ff ff 	movq	%rax, -408(%rbp)
    3d00:	48 8b 85 60 fe ff ff 	movq	-416(%rbp), %rax
    3d07:	48 8b 10 	movq	(%rax), %rdx
    3d0a:	48 8b 85 60 fe ff ff 	movq	-416(%rbp), %rax
    3d11:	8b 12 	movl	(%rdx), %edx
    3d13:	89 10 	movl	%edx, (%rax)
    3d15:	e9 a8 f5 ff ff 	jmp	-2648 <.text+0x2a72>
    3d1a:	80 bd 3f fe ff ff 8a 	cmpb	$-118, -449(%rbp)
    3d21:	75 43 	jne	67 <.text+0x3516>
    3d23:	48 8b 85 68 fe ff ff 	movq	-408(%rbp), %rax
    3d2a:	48 83 c0 01 	addq	$1, %rax
    3d2e:	48 89 85 68 fe ff ff 	movq	%rax, -408(%rbp)
    3d35:	48 8b 95 60 fe ff ff 	movq	-416(%rbp), %rdx
    3d3c:	48 8b 85 60 fe ff ff 	movq	-416(%rbp), %rax
    3d43:	48 83 e8 08 	subq	$8, %rax
    3d47:	48 8b 00 	movq	(%rax), %rax
    3d4a:	0f b6 12 	movzbl	(%rdx), %edx
    3d4d:	88 10 	movb	%dl, (%rax)
    3d4f:	48 8b 85 60 fe ff ff 	movq	-416(%rbp), %rax
    3d56:	48 83 e8 10 	subq	$16, %rax
    3d5a:	48 89 85 60 fe ff ff 	movq	%rax, -416(%rbp)
    3d61:	e9 5c f5 ff ff 	jmp	-2724 <.text+0x2a72>
    3d66:	80 bd 3f fe ff ff 76 	cmpb	$118, -449(%rbp)
    3d6d:	0f 85 4f f5 ff ff 	jne	-2737 <.text+0x2a72>
    3d73:	48 8b 85 68 fe ff ff 	movq	-408(%rbp), %rax
    3d7a:	48 83 c0 01 	addq	$1, %rax
    3d7e:	48 89 85 68 fe ff ff 	movq	%rax, -408(%rbp)
    3d85:	48 8b 85 60 fe ff ff 	movq	-416(%rbp), %rax
    3d8c:	48 83 e8 08 	subq	$8, %rax
    3d90:	8b 10 	movl	(%rax), %edx
    3d92:	48 8b 85 60 fe ff ff 	movq	-416(%rbp), %rax
    3d99:	8b 00 	movl	(%rax), %eax
    3d9b:	39 c2 	cmpl	%eax, %edx
    3d9d:	0f 9c c1 	setl	%cl
    3da0:	48 8b 85 60 fe ff ff 	movq	-416(%rbp), %rax
    3da7:	48 8d 50 f8 	leaq	-8(%rax), %rdx
    3dab:	0f b6 c1 	movzbl	%cl, %eax
    3dae:	89 02 	movl	%eax, (%rdx)
    3db0:	48 8b 85 60 fe ff ff 	movq	-416(%rbp), %rax
    3db7:	48 83 e8 08 	subq	$8, %rax
    3dbb:	48 89 85 60 fe ff ff 	movq	%rax, -416(%rbp)
    3dc2:	e9 fb f4 ff ff 	jmp	-2821 <.text+0x2a72>
    3dc7:	e8 04 ca ff ff 	callq	-13820 <.plt+0x40>
    3dcc:	48 81 c4 d8 01 00 00 	addq	$472, %rsp
    3dd3:	5b 	popq	%rbx
    3dd4:	5d 	popq	%rbp
    3dd5:	c3 	retq
    3dd6:	55 	pushq	%rbp
    3dd7:	48 89 e5 	movq	%rsp, %rbp
    3dda:	48 81 ec 60 02 00 00 	subq	$608, %rsp
    3de1:	48 89 bd b8 fd ff ff 	movq	%rdi, -584(%rbp)
    3de8:	48 89 b5 b0 fd ff ff 	movq	%rsi, -592(%rbp)
    3def:	89 d0 	movl	%edx, %eax
    3df1:	88 85 ac fd ff ff 	movb	%al, -596(%rbp)
    3df7:	64 48 8b 04 25 28 00 00 00 	movq	%fs:40, %rax
    3e00:	48 89 45 f8 	movq	%rax, -8(%rbp)
    3e04:	31 c0 	xorl	%eax, %eax
    3e06:	c7 85 d4 fd ff ff 01 00 00 00 	movl	$1, -556(%rbp)
    3e10:	bf 18 00 00 00 	movl	$24, %edi
    3e15:	e8 e6 c9 ff ff 	callq	-13850 <.plt+0x70>
    3e1a:	48 89 85 e0 fd ff ff 	movq	%rax, -544(%rbp)
    3e21:	48 8b 85 e0 fd ff ff 	movq	-544(%rbp), %rax
    3e28:	48 8b 95 e0 fd ff ff 	movq	-544(%rbp), %rdx
    3e2f:	48 89 10 	movq	%rdx, (%rax)
    3e32:	48 8b 85 e0 fd ff ff 	movq	-544(%rbp), %rax
    3e39:	48 8b 95 e0 fd ff ff 	movq	-544(%rbp), %rdx
    3e40:	48 89 50 08 	movq	%rdx, 8(%rax)
    3e44:	48 8b 85 e0 fd ff ff 	movq	-544(%rbp), %rax
    3e4b:	48 89 05 76 3d 20 00 	movq	%rax, 2112886(%rip)
    3e52:	c7 85 d0 fd ff ff 00 00 00 00 	movl	$0, -560(%rbp)
    3e5c:	e9 a0 00 00 00 	jmp	160 <.text+0x36b1>
    3e61:	bf 18 00 00 00 	movl	$24, %edi
    3e66:	e8 95 c9 ff ff 	callq	-13931 <.plt+0x70>
    3e6b:	48 89 85 e8 fd ff ff 	movq	%rax, -536(%rbp)
    3e72:	8b 85 d0 fd ff ff 	movl	-560(%rbp), %eax
    3e78:	48 98 	cltq
    3e7a:	89 c1 	movl	%eax, %ecx
    3e7c:	48 8b 05 25 2b 20 00 	movq	2108197(%rip), %rax
    3e83:	48 83 f0 f8 	xorq	$-8, %rax
    3e87:	48 89 c2 	movq	%rax, %rdx
    3e8a:	48 8b 05 17 2b 20 00 	movq	2108183(%rip), %rax
    3e91:	48 83 c8 07 	orq	$7, %rax
    3e95:	48 01 c0 	addq	%rax, %rax
    3e98:	48 01 d0 	addq	%rdx, %rax
    3e9b:	48 83 c0 01 	addq	$1, %rax
    3e9f:	0f af c1 	imull	%ecx, %eax
    3ea2:	89 c2 	movl	%eax, %edx
    3ea4:	48 8b 85 e8 fd ff ff 	movq	-536(%rbp), %rax
    3eab:	89 50 10 	movl	%edx, 16(%rax)
    3eae:	48 8b 05 13 3d 20 00 	movq	2112787(%rip), %rax
    3eb5:	48 8b 10 	movq	(%rax), %rdx
    3eb8:	48 8b 85 e8 fd ff ff 	movq	-536(%rbp), %rax
    3ebf:	48 89 10 	movq	%rdx, (%rax)
    3ec2:	48 8b 15 ff 3c 20 00 	movq	2112767(%rip), %rdx
    3ec9:	48 8b 85 e8 fd ff ff 	movq	-536(%rbp), %rax
    3ed0:	48 89 50 08 	movq	%rdx, 8(%rax)
    3ed4:	48 8b 05 ed 3c 20 00 	movq	2112749(%rip), %rax
    3edb:	48 8b 00 	movq	(%rax), %rax
    3ede:	48 8b 95 e8 fd ff ff 	movq	-536(%rbp), %rdx
    3ee5:	48 89 50 08 	movq	%rdx, 8(%rax)
    3ee9:	48 8b 05 d8 3c 20 00 	movq	2112728(%rip), %rax
    3ef0:	48 8b 95 e8 fd ff ff 	movq	-536(%rbp), %rdx
    3ef7:	48 89 10 	movq	%rdx, (%rax)
    3efa:	83 85 d0 fd ff ff 01 	addl	$1, -560(%rbp)
    3f01:	83 bd d0 fd ff ff 03 	cmpl	$3, -560(%rbp)
    3f08:	0f 8e 53 ff ff ff 	jle	-173 <.text+0x3611>
    3f0e:	48 8b 05 b3 3c 20 00 	movq	2112691(%rip), %rax
    3f15:	48 8b 00 	movq	(%rax), %rax
    3f18:	48 89 05 99 3c 20 00 	movq	%rax, 2112665(%rip)
    3f1f:	48 8b 05 92 3c 20 00 	movq	2112658(%rip), %rax
    3f26:	48 89 05 6b 3c 20 00 	movq	%rax, 2112619(%rip)
    3f2d:	c7 85 d8 fd ff ff 01 00 00 00 	movl	$1, -552(%rbp)
    3f37:	c7 85 dc fd ff ff 01 00 00 00 	movl	$1, -548(%rbp)
    3f41:	48 8d 85 00 fe ff ff 	leaq	-512(%rbp), %rax
    3f48:	48 89 85 f0 fd ff ff 	movq	%rax, -528(%rbp)
    3f4f:	48 8d 05 ca 20 20 00 	leaq	2105546(%rip), %rax
    3f56:	48 89 85 f8 fd ff ff 	movq	%rax, -520(%rbp)
    3f5d:	48 8b 85 f8 fd ff ff 	movq	-520(%rbp), %rax
    3f64:	0f b6 00 	movzbl	(%rax), %eax
    3f67:	88 85 cf fd ff ff 	movb	%al, -561(%rbp)
    3f6d:	80 bd cf fd ff ff 05 	cmpb	$5, -561(%rbp)
    3f74:	75 3f 	jne	63 <.text+0x3765>
    3f76:	48 8b 85 f8 fd ff ff 	movq	-520(%rbp), %rax
    3f7d:	48 83 c0 01 	addq	$1, %rax
    3f81:	48 89 85 f8 fd ff ff 	movq	%rax, -520(%rbp)
    3f88:	48 8b 85 f0 fd ff ff 	movq	-528(%rbp), %rax
    3f8f:	48 8d 50 f8 	leaq	-8(%rax), %rdx
    3f93:	48 8b 85 f0 fd ff ff 	movq	-528(%rbp), %rax
    3f9a:	48 8b 00 	movq	(%rax), %rax
    3f9d:	8b 12 	movl	(%rdx), %edx
    3f9f:	89 10 	movl	%edx, (%rax)
    3fa1:	48 8b 85 f0 fd ff ff 	movq	-528(%rbp), %rax
    3fa8:	48 83 e8 10 	subq	$16, %rax
    3fac:	48 89 85 f0 fd ff ff 	movq	%rax, -528(%rbp)
    3fb3:	eb a8 	jmp	-88 <.text+0x370d>
    3fb5:	80 bd cf fd ff ff 87 	cmpb	$-121, -561(%rbp)
    3fbc:	75 4e 	jne	78 <.text+0x37bc>
    3fbe:	48 8b 85 f8 fd ff ff 	movq	-520(%rbp), %rax
    3fc5:	48 83 c0 01 	addq	$1, %rax
    3fc9:	48 89 85 f8 fd ff ff 	movq	%rax, -520(%rbp)
    3fd0:	48 8b 85 f0 fd ff ff 	movq	-528(%rbp), %rax
    3fd7:	48 83 e8 08 	subq	$8, %rax
    3fdb:	8b 08 	movl	(%rax), %ecx
    3fdd:	48 8b 85 f0 fd ff ff 	movq	-528(%rbp), %rax
    3fe4:	8b 10 	movl	(%rax), %edx
    3fe6:	48 8b 85 f0 fd ff ff 	movq	-528(%rbp), %rax
    3fed:	48 83 e8 08 	subq	$8, %rax
    3ff1:	21 ca 	andl	%ecx, %edx
    3ff3:	89 10 	movl	%edx, (%rax)
    3ff5:	48 8b 85 f0 fd ff ff 	movq	-528(%rbp), %rax
    3ffc:	48 83 e8 08 	subq	$8, %rax
    4000:	48 89 85 f0 fd ff ff 	movq	%rax, -528(%rbp)
    4007:	e9 51 ff ff ff 	jmp	-175 <.text+0x370d>
    400c:	80 bd cf fd ff ff 53 	cmpb	$83, -561(%rbp)
    4013:	75 43 	jne	67 <.text+0x3808>
    4015:	48 8b 85 f8 fd ff ff 	movq	-520(%rbp), %rax
    401c:	48 83 c0 01 	addq	$1, %rax
    4020:	48 89 85 f8 fd ff ff 	movq	%rax, -520(%rbp)
    4027:	48 8b 85 f0 fd ff ff 	movq	-528(%rbp), %rax
    402e:	48 8d 50 f8 	leaq	-8(%rax), %rdx
    4032:	48 8b 85 f0 fd ff ff 	movq	-528(%rbp), %rax
    4039:	48 8b 00 	movq	(%rax), %rax
    403c:	0f b6 12 	movzbl	(%rdx), %edx
    403f:	88 10 	movb	%dl, (%rax)
    4041:	48 8b 85 f0 fd ff ff 	movq	-528(%rbp), %rax
    4048:	48 83 e8 10 	subq	$16, %rax
    404c:	48 89 85 f0 fd ff ff 	movq	%rax, -528(%rbp)
    4053:	e9 05 ff ff ff 	jmp	-251 <.text+0x370d>
    4058:	80 bd cf fd ff ff 29 	cmpb	$41, -561(%rbp)
    405f:	75 54 	jne	84 <.text+0x3865>
    4061:	48 8b 85 f8 fd ff ff 	movq	-520(%rbp), %rax
    4068:	48 83 c0 01 	addq	$1, %rax
    406c:	48 89 85 f8 fd ff ff 	movq	%rax, -520(%rbp)
    4073:	48 8b 85 f0 fd ff ff 	movq	-528(%rbp), %rax
    407a:	8b 10 	movl	(%rax), %edx
    407c:	48 8b 85 f0 fd ff ff 	movq	-528(%rbp), %rax
    4083:	48 83 e8 08 	subq	$8, %rax
    4087:	8b 00 	movl	(%rax), %eax
    4089:	39 c2 	cmpl	%eax, %edx
    408b:	0f 9c c1 	setl	%cl
    408e:	48 8b 85 f0 fd ff ff 	movq	-528(%rbp), %rax
    4095:	48 8d 50 f8 	leaq	-8(%rax), %rdx
    4099:	0f b6 c1 	movzbl	%cl, %eax
    409c:	89 02 	movl	%eax, (%rdx)
    409e:	48 8b 85 f0 fd ff ff 	movq	-528(%rbp), %rax
    40a5:	48 83 e8 08 	subq	$8, %rax
    40a9:	48 89 85 f0 fd ff ff 	movq	%rax, -528(%rbp)
    40b0:	e9 a8 fe ff ff 	jmp	-344 <.text+0x370d>
    40b5:	80 bd cf fd ff ff 2f 	cmpb	$47, -561(%rbp)
    40bc:	75 52 	jne	82 <.text+0x38c0>
    40be:	48 8b 85 f8 fd ff ff 	movq	-520(%rbp), %rax
    40c5:	48 83 c0 01 	addq	$1, %rax
    40c9:	48 89 85 f8 fd ff ff 	movq	%rax, -520(%rbp)
    40d0:	48 8b 85 f0 fd ff ff 	movq	-528(%rbp), %rax
    40d7:	48 8b 08 	movq	(%rax), %rcx
    40da:	48 8b 85 f0 fd ff ff 	movq	-528(%rbp), %rax
    40e1:	48 83 e8 08 	subq	$8, %rax
    40e5:	48 8b 10 	movq	(%rax), %rdx
    40e8:	48 8b 85 f0 fd ff ff 	movq	-528(%rbp), %rax
    40ef:	48 83 e8 08 	subq	$8, %rax
    40f3:	48 01 ca 	addq	%rcx, %rdx
    40f6:	48 89 10 	movq	%rdx, (%rax)
    40f9:	48 8b 85 f0 fd ff ff 	movq	-528(%rbp), %rax
    4100:	48 83 e8 08 	subq	$8, %rax
    4104:	48 89 85 f0 fd ff ff 	movq	%rax, -528(%rbp)
    410b:	e9 4d fe ff ff 	jmp	-435 <.text+0x370d>
    4110:	80 bd cf fd ff ff a2 	cmpb	$-94, -561(%rbp)
    4117:	75 2c 	jne	44 <.text+0x38f5>
    4119:	48 8b 85 f8 fd ff ff 	movq	-520(%rbp), %rax
    4120:	48 83 c0 01 	addq	$1, %rax
    4124:	48 89 85 f8 fd ff ff 	movq	%rax, -520(%rbp)
    412b:	48 8b 85 f0 fd ff ff 	movq	-528(%rbp), %rax
    4132:	48 8b 10 	movq	(%rax), %rdx
    4135:	48 8b 85 f0 fd ff ff 	movq	-528(%rbp), %rax
    413c:	8b 12 	movl	(%rdx), %edx
    413e:	89 10 	movl	%edx, (%rax)
    4140:	e9 18 fe ff ff 	jmp	-488 <.text+0x370d>
    4145:	80 bd cf fd ff ff 9d 	cmpb	$-99, -561(%rbp)
    414c:	75 4e 	jne	78 <.text+0x394c>
    414e:	48 8b 85 f8 fd ff ff 	movq	-520(%rbp), %rax
    4155:	48 83 c0 01 	addq	$1, %rax
    4159:	48 89 85 f8 fd ff ff 	movq	%rax, -520(%rbp)
    4160:	48 8b 85 f0 fd ff ff 	movq	-528(%rbp), %rax
    4167:	48 83 e8 08 	subq	$8, %rax
    416b:	8b 08 	movl	(%rax), %ecx
    416d:	48 8b 85 f0 fd ff ff 	movq	-528(%rbp), %rax
    4174:	8b 10 	movl	(%rax), %edx
    4176:	48 8b 85 f0 fd ff ff 	movq	-528(%rbp), %rax
    417d:	48 83 e8 08 	subq	$8, %rax
    4181:	31 ca 	xorl	%ecx, %edx
    4183:	89 10 	movl	%edx, (%rax)
    4185:	48 8b 85 f0 fd ff ff 	movq	-528(%rbp), %rax
    418c:	48 83 e8 08 	subq	$8, %rax
    4190:	48 89 85 f0 fd ff ff 	movq	%rax, -528(%rbp)
    4197:	e9 c1 fd ff ff 	jmp	-575 <.text+0x370d>
    419c:	80 bd cf fd ff ff e8 	cmpb	$-24, -561(%rbp)
    41a3:	75 4f 	jne	79 <.text+0x39a4>
    41a5:	48 8b 85 f8 fd ff ff 	movq	-520(%rbp), %rax
    41ac:	48 83 c0 01 	addq	$1, %rax
    41b0:	48 89 85 f8 fd ff ff 	movq	%rax, -520(%rbp)
    41b7:	48 8b 85 f0 fd ff ff 	movq	-528(%rbp), %rax
    41be:	48 83 e8 08 	subq	$8, %rax
    41c2:	8b 08 	movl	(%rax), %ecx
    41c4:	48 8b 85 f0 fd ff ff 	movq	-528(%rbp), %rax
    41cb:	8b 00 	movl	(%rax), %eax
    41cd:	48 8b 95 f0 fd ff ff 	movq	-528(%rbp), %rdx
    41d4:	48 83 ea 08 	subq	$8, %rdx
    41d8:	0f af c1 	imull	%ecx, %eax
    41db:	89 02 	movl	%eax, (%rdx)
    41dd:	48 8b 85 f0 fd ff ff 	movq	-528(%rbp), %rax
    41e4:	48 83 e8 08 	subq	$8, %rax
    41e8:	48 89 85 f0 fd ff ff 	movq	%rax, -528(%rbp)
    41ef:	e9 69 fd ff ff 	jmp	-663 <.text+0x370d>
    41f4:	80 bd cf fd ff ff 70 	cmpb	$112, -561(%rbp)
    41fb:	75 52 	jne	82 <.text+0x39ff>
    41fd:	48 8b 85 f8 fd ff ff 	movq	-520(%rbp), %rax
    4204:	48 83 c0 01 	addq	$1, %rax
    4208:	48 89 85 f8 fd ff ff 	movq	%rax, -520(%rbp)
    420f:	48 8b 85 f0 fd ff ff 	movq	-528(%rbp), %rax
    4216:	8b 30 	movl	(%rax), %esi
    4218:	48 8b 85 f0 fd ff ff 	movq	-528(%rbp), %rax
    421f:	48 83 e8 08 	subq	$8, %rax
    4223:	8b 00 	movl	(%rax), %eax
    4225:	48 8b 95 f0 fd ff ff 	movq	-528(%rbp), %rdx
    422c:	48 83 ea 08 	subq	$8, %rdx
    4230:	89 c1 	movl	%eax, %ecx
    4232:	d3 fe 	sarl	%cl, %esi
    4234:	89 f0 	movl	%esi, %eax
    4236:	89 02 	movl	%eax, (%rdx)
    4238:	48 8b 85 f0 fd ff ff 	movq	-528(%rbp), %rax
    423f:	48 83 e8 08 	subq	$8, %rax
    4243:	48 89 85 f0 fd ff ff 	movq	%rax, -528(%rbp)
    424a:	e9 0e fd ff ff 	jmp	-754 <.text+0x370d>
    424f:	80 bd cf fd ff ff fd 	cmpb	$-3, -561(%rbp)
    4256:	75 56 	jne	86 <.text+0x3a5e>
    4258:	48 8b 85 f8 fd ff ff 	movq	-520(%rbp), %rax
    425f:	48 83 c0 01 	addq	$1, %rax
    4263:	48 89 85 f8 fd ff ff 	movq	%rax, -520(%rbp)
    426a:	48 8b 85 f0 fd ff ff 	movq	-528(%rbp), %rax
    4271:	48 8b 30 	movq	(%rax), %rsi
    4274:	48 8b 85 f0 fd ff ff 	movq	-528(%rbp), %rax
    427b:	48 83 e8 08 	subq	$8, %rax
    427f:	8b 00 	movl	(%rax), %eax
    4281:	48 8b 95 f0 fd ff ff 	movq	-528(%rbp), %rdx
    4288:	48 83 ea 08 	subq	$8, %rdx
    428c:	89 c1 	movl	%eax, %ecx
    428e:	48 d3 e6 	shlq	%cl, %rsi
    4291:	48 89 f0 	movq	%rsi, %rax
    4294:	48 89 02 	movq	%rax, (%rdx)
    4297:	48 8b 85 f0 fd ff ff 	movq	-528(%rbp), %rax
    429e:	48 83 e8 08 	subq	$8, %rax
    42a2:	48 89 85 f0 fd ff ff 	movq	%rax, -528(%rbp)
    42a9:	e9 af fc ff ff 	jmp	-849 <.text+0x370d>
    42ae:	80 bd cf fd ff ff 94 	cmpb	$-108, -561(%rbp)
    42b5:	75 50 	jne	80 <.text+0x3ab7>
    42b7:	48 8b 85 f8 fd ff ff 	movq	-520(%rbp), %rax
    42be:	48 83 c0 01 	addq	$1, %rax
    42c2:	48 89 85 f8 fd ff ff 	movq	%rax, -520(%rbp)
    42c9:	48 8b 85 f0 fd ff ff 	movq	-528(%rbp), %rax
    42d0:	48 83 e8 08 	subq	$8, %rax
    42d4:	8b 08 	movl	(%rax), %ecx
    42d6:	48 8b 85 f0 fd ff ff 	movq	-528(%rbp), %rax
    42dd:	8b 10 	movl	(%rax), %edx
    42df:	48 8b 85 f0 fd ff ff 	movq	-528(%rbp), %rax
    42e6:	48 83 e8 08 	subq	$8, %rax
    42ea:	29 d1 	subl	%edx, %ecx
    42ec:	89 ca 	movl	%ecx, %edx
    42ee:	89 10 	movl	%edx, (%rax)
    42f0:	48 8b 85 f0 fd ff ff 	movq	-528(%rbp), %rax
    42f7:	48 83 e8 08 	subq	$8, %rax
    42fb:	48 89 85 f0 fd ff ff 	movq	%rax, -528(%rbp)
    4302:	e9 56 fc ff ff 	jmp	-938 <.text+0x370d>
    4307:	80 bd cf fd ff ff 89 	cmpb	$-119, -561(%rbp)
    430e:	75 53 	jne	83 <.text+0x3b13>
    4310:	48 8b 85 f8 fd ff ff 	movq	-520(%rbp), %rax
    4317:	48 83 c0 01 	addq	$1, %rax
    431b:	48 89 85 f8 fd ff ff 	movq	%rax, -520(%rbp)
    4322:	48 8b 85 f8 fd ff ff 	movq	-520(%rbp), %rax
    4329:	48 8b 95 f0 fd ff ff 	movq	-528(%rbp), %rdx
    4330:	48 83 c2 08 	addq	$8, %rdx
    4334:	48 8b 00 	movq	(%rax), %rax
    4337:	48 89 02 	movq	%rax, (%rdx)
    433a:	48 8b 85 f0 fd ff ff 	movq	-528(%rbp), %rax
    4341:	48 83 c0 08 	addq	$8, %rax
    4345:	48 89 85 f0 fd ff ff 	movq	%rax, -528(%rbp)
    434c:	48 8b 85 f8 fd ff ff 	movq	-520(%rbp), %rax
    4353:	48 83 c0 08 	addq	$8, %rax
    4357:	48 89 85 f8 fd ff ff 	movq	%rax, -520(%rbp)
    435e:	e9 fa fb ff ff 	jmp	-1030 <.text+0x370d>
    4363:	80 bd cf fd ff ff 4c 	cmpb	$76, -561(%rbp)
    436a:	75 4e 	jne	78 <.text+0x3b6a>
    436c:	48 8b 85 f8 fd ff ff 	movq	-520(%rbp), %rax
    4373:	48 83 c0 01 	addq	$1, %rax
    4377:	48 89 85 f8 fd ff ff 	movq	%rax, -520(%rbp)
    437e:	48 8b 85 f0 fd ff ff 	movq	-528(%rbp), %rax
    4385:	48 83 e8 08 	subq	$8, %rax
    4389:	8b 08 	movl	(%rax), %ecx
    438b:	48 8b 85 f0 fd ff ff 	movq	-528(%rbp), %rax
    4392:	8b 10 	movl	(%rax), %edx
    4394:	48 8b 85 f0 fd ff ff 	movq	-528(%rbp), %rax
    439b:	48 83 e8 08 	subq	$8, %rax
    439f:	09 ca 	orl	%ecx, %edx
    43a1:	89 10 	movl	%edx, (%rax)
    43a3:	48 8b 85 f0 fd ff ff 	movq	-528(%rbp), %rax
    43aa:	48 83 e8 08 	subq	$8, %rax
    43ae:	48 89 85 f0 fd ff ff 	movq	%rax, -528(%rbp)
    43b5:	e9 a3 fb ff ff 	jmp	-1117 <.text+0x370d>
    43ba:	80 bd cf fd ff ff b2 	cmpb	$-78, -561(%rbp)
    43c1:	75 4e 	jne	78 <.text+0x3bc1>
    43c3:	48 8b 85 f8 fd ff ff 	movq	-520(%rbp), %rax
    43ca:	48 83 c0 01 	addq	$1, %rax
    43ce:	48 89 85 f8 fd ff ff 	movq	%rax, -520(%rbp)
    43d5:	48 8b 85 f0 fd ff ff 	movq	-528(%rbp), %rax
    43dc:	48 83 e8 08 	subq	$8, %rax
    43e0:	8b 08 	movl	(%rax), %ecx
    43e2:	48 8b 85 f0 fd ff ff 	movq	-528(%rbp), %rax
    43e9:	8b 10 	movl	(%rax), %edx
    43eb:	48 8b 85 f0 fd ff ff 	movq	-528(%rbp), %rax
    43f2:	48 83 e8 08 	subq	$8, %rax
    43f6:	01 ca 	addl	%ecx, %edx
    43f8:	89 10 	movl	%edx, (%rax)
    43fa:	48 8b 85 f0 fd ff ff 	movq	-528(%rbp), %rax
    4401:	48 83 e8 08 	subq	$8, %rax
    4405:	48 89 85 f0 fd ff ff 	movq	%rax, -528(%rbp)
    440c:	e9 4c fb ff ff 	jmp	-1204 <.text+0x370d>
    4411:	80 bd cf fd ff ff 2c 	cmpb	$44, -561(%rbp)
    4418:	0f 85 98 00 00 00 	jne	152 <.text+0x3c66>
    441e:	48 8b 85 f8 fd ff ff 	movq	-520(%rbp), %rax
    4425:	48 83 c0 01 	addq	$1, %rax
    4429:	48 89 85 f8 fd ff ff 	movq	%rax, -520(%rbp)
    4430:	48 8b 85 f8 fd ff ff 	movq	-520(%rbp), %rax
    4437:	8b 00 	movl	(%rax), %eax
    4439:	83 f8 01 	cmpl	$1, %eax
    443c:	74 39 	je	57 <.text+0x3c27>
    443e:	83 f8 02 	cmpl	$2, %eax
    4441:	74 06 	je	6 <.text+0x3bf9>
    4443:	85 c0 	testl	%eax, %eax
    4445:	74 19 	je	25 <.text+0x3c10>
    4447:	eb 44 	jmp	68 <.text+0x3c3d>
    4449:	48 8b 85 f0 fd ff ff 	movq	-528(%rbp), %rax
    4450:	48 8d 50 08 	leaq	8(%rax), %rdx
    4454:	48 8d 85 ac fd ff ff 	leaq	-596(%rbp), %rax
    445b:	48 89 02 	movq	%rax, (%rdx)
    445e:	eb 2d 	jmp	45 <.text+0x3c3d>
    4460:	48 8b 85 f0 fd ff ff 	movq	-528(%rbp), %rax
    4467:	48 8d 50 08 	leaq	8(%rax), %rdx
    446b:	48 8d 85 b8 fd ff ff 	leaq	-584(%rbp), %rax
    4472:	48 89 02 	movq	%rax, (%rdx)
    4475:	eb 16 	jmp	22 <.text+0x3c3d>
    4477:	48 8b 85 f0 fd ff ff 	movq	-528(%rbp), %rax
    447e:	48 8d 50 08 	leaq	8(%rax), %rdx
    4482:	48 8d 85 b0 fd ff ff 	leaq	-592(%rbp), %rax
    4489:	48 89 02 	movq	%rax, (%rdx)
    448c:	90 	nop
    448d:	48 8b 85 f0 fd ff ff 	movq	-528(%rbp), %rax
    4494:	48 83 c0 08 	addq	$8, %rax
    4498:	48 89 85 f0 fd ff ff 	movq	%rax, -528(%rbp)
    449f:	48 8b 85 f8 fd ff ff 	movq	-520(%rbp), %rax
    44a6:	48 83 c0 04 	addq	$4, %rax
    44aa:	48 89 85 f8 fd ff ff 	movq	%rax, -520(%rbp)
    44b1:	e9 a7 fa ff ff 	jmp	-1369 <.text+0x370d>
    44b6:	80 bd cf fd ff ff 3c 	cmpb	$60, -561(%rbp)
    44bd:	75 56 	jne	86 <.text+0x3cc5>
    44bf:	48 8b 85 f8 fd ff ff 	movq	-520(%rbp), %rax
    44c6:	48 83 c0 01 	addq	$1, %rax
    44ca:	48 89 85 f8 fd ff ff 	movq	%rax, -520(%rbp)
    44d1:	48 8b 85 f0 fd ff ff 	movq	-528(%rbp), %rax
    44d8:	48 8b 30 	movq	(%rax), %rsi
    44db:	48 8b 85 f0 fd ff ff 	movq	-528(%rbp), %rax
    44e2:	48 83 e8 08 	subq	$8, %rax
    44e6:	8b 00 	movl	(%rax), %eax
    44e8:	48 8b 95 f0 fd ff ff 	movq	-528(%rbp), %rdx
    44ef:	48 83 ea 08 	subq	$8, %rdx
    44f3:	89 c1 	movl	%eax, %ecx
    44f5:	48 d3 ee 	shrq	%cl, %rsi
    44f8:	48 89 f0 	movq	%rsi, %rax
    44fb:	48 89 02 	movq	%rax, (%rdx)
    44fe:	48 8b 85 f0 fd ff ff 	movq	-528(%rbp), %rax
    4505:	48 83 e8 08 	subq	$8, %rax
    4509:	48 89 85 f0 fd ff ff 	movq	%rax, -528(%rbp)
    4510:	e9 48 fa ff ff 	jmp	-1464 <.text+0x370d>
    4515:	80 bd cf fd ff ff c0 	cmpb	$-64, -561(%rbp)
    451c:	75 5f 	jne	95 <.text+0x3d2d>
    451e:	48 8b 85 f8 fd ff ff 	movq	-520(%rbp), %rax
    4525:	48 83 c0 01 	addq	$1, %rax
    4529:	48 89 85 f8 fd ff ff 	movq	%rax, -520(%rbp)
    4530:	48 8b 85 f8 fd ff ff 	movq	-520(%rbp), %rax
    4537:	8b 00 	movl	(%rax), %eax
    4539:	48 63 d0 	movslq	%eax, %rdx
    453c:	48 8b 85 f0 fd ff ff 	movq	-528(%rbp), %rax
    4543:	48 83 c0 08 	addq	$8, %rax
    4547:	48 8d 8d 00 ff ff ff 	leaq	-256(%rbp), %rcx
    454e:	48 01 ca 	addq	%rcx, %rdx
    4551:	48 89 10 	movq	%rdx, (%rax)
    4554:	48 8b 85 f0 fd ff ff 	movq	-528(%rbp), %rax
    455b:	48 83 c0 08 	addq	$8, %rax
    455f:	48 89 85 f0 fd ff ff 	movq	%rax, -528(%rbp)
    4566:	48 8b 85 f8 fd ff ff 	movq	-520(%rbp), %rax
    456d:	48 83 c0 04 	addq	$4, %rax
    4571:	48 89 85 f8 fd ff ff 	movq	%rax, -520(%rbp)
    4578:	e9 e0 f9 ff ff 	jmp	-1568 <.text+0x370d>
    457d:	80 bd cf fd ff ff b5 	cmpb	$-75, -561(%rbp)
    4584:	75 42 	jne	66 <.text+0x3d78>
    4586:	48 8b 85 f8 fd ff ff 	movq	-520(%rbp), %rax
    458d:	48 83 c0 01 	addq	$1, %rax
    4591:	48 89 85 f8 fd ff ff 	movq	%rax, -520(%rbp)
    4598:	48 8b 95 f0 fd ff ff 	movq	-528(%rbp), %rdx
    459f:	48 8b 85 f0 fd ff ff 	movq	-528(%rbp), %rax
    45a6:	48 83 e8 08 	subq	$8, %rax
    45aa:	48 8b 00 	movq	(%rax), %rax
    45ad:	8b 12 	movl	(%rdx), %edx
    45af:	89 10 	movl	%edx, (%rax)
    45b1:	48 8b 85 f0 fd ff ff 	movq	-528(%rbp), %rax
    45b8:	48 83 e8 10 	subq	$16, %rax
    45bc:	48 89 85 f0 fd ff ff 	movq	%rax, -528(%rbp)
    45c3:	e9 95 f9 ff ff 	jmp	-1643 <.text+0x370d>
    45c8:	80 bd cf fd ff ff 01 	cmpb	$1, -561(%rbp)
    45cf:	75 2d 	jne	45 <.text+0x3dae>
    45d1:	48 8b 85 f8 fd ff ff 	movq	-520(%rbp), %rax
    45d8:	48 83 c0 01 	addq	$1, %rax
    45dc:	48 89 85 f8 fd ff ff 	movq	%rax, -520(%rbp)
    45e3:	48 8b 85 f0 fd ff ff 	movq	-528(%rbp), %rax
    45ea:	8b 10 	movl	(%rax), %edx
    45ec:	48 8b 85 f0 fd ff ff 	movq	-528(%rbp), %rax
    45f3:	48 63 d2 	movslq	%edx, %rdx
    45f6:	48 89 10 	movq	%rdx, (%rax)
    45f9:	e9 5f f9 ff ff 	jmp	-1697 <.text+0x370d>
    45fe:	80 bd cf fd ff ff fb 	cmpb	$-5, -561(%rbp)
    4605:	75 54 	jne	84 <.text+0x3e0b>
    4607:	48 8b 85 f8 fd ff ff 	movq	-520(%rbp), %rax
    460e:	48 83 c0 01 	addq	$1, %rax
    4612:	48 89 85 f8 fd ff ff 	movq	%rax, -520(%rbp)
    4619:	48 8b 85 f0 fd ff ff 	movq	-528(%rbp), %rax
    4620:	48 83 e8 08 	subq	$8, %rax
    4624:	48 8b 08 	movq	(%rax), %rcx
    4627:	48 8b 85 f0 fd ff ff 	movq	-528(%rbp), %rax
    462e:	8b 00 	movl	(%rax), %eax
    4630:	48 63 d0 	movslq	%eax, %rdx
    4633:	48 8b 85 f0 fd ff ff 	movq	-528(%rbp), %rax
    463a:	48 83 e8 08 	subq	$8, %rax
    463e:	48 01 ca 	addq	%rcx, %rdx
    4641:	48 89 10 	movq	%rdx, (%rax)
    4644:	48 8b 85 f0 fd ff ff 	movq	-528(%rbp), %rax
    464b:	48 83 e8 08 	subq	$8, %rax
    464f:	48 89 85 f0 fd ff ff 	movq	%rax, -528(%rbp)
    4656:	e9 02 f9 ff ff 	jmp	-1790 <.text+0x370d>
    465b:	80 bd cf fd ff ff 5b 	cmpb	$91, -561(%rbp)
    4662:	75 2b 	jne	43 <.text+0x3e3f>
    4664:	48 8b 85 f8 fd ff ff 	movq	-520(%rbp), %rax
    466b:	48 83 c0 01 	addq	$1, %rax
    466f:	48 89 85 f8 fd ff ff 	movq	%rax, -520(%rbp)
    4676:	48 8b 85 f0 fd ff ff 	movq	-528(%rbp), %rax
    467d:	48 8b 10 	movq	(%rax), %rdx
    4680:	48 8b 85 f0 fd ff ff 	movq	-528(%rbp), %rax
    4687:	48 89 10 	movq	%rdx, (%rax)
    468a:	e9 ce f8 ff ff 	jmp	-1842 <.text+0x370d>
    468f:	80 bd cf fd ff ff 49 	cmpb	$73, -561(%rbp)
    4696:	75 4e 	jne	78 <.text+0x3e96>
    4698:	48 8b 85 f8 fd ff ff 	movq	-520(%rbp), %rax
    469f:	48 83 c0 01 	addq	$1, %rax
    46a3:	48 89 85 f8 fd ff ff 	movq	%rax, -520(%rbp)
    46aa:	48 8b 85 f0 fd ff ff 	movq	-528(%rbp), %rax
    46b1:	48 83 e8 08 	subq	$8, %rax
    46b5:	8b 08 	movl	(%rax), %ecx
    46b7:	48 8b 85 f0 fd ff ff 	movq	-528(%rbp), %rax
    46be:	8b 10 	movl	(%rax), %edx
    46c0:	48 8b 85 f0 fd ff ff 	movq	-528(%rbp), %rax
    46c7:	48 83 e8 08 	subq	$8, %rax
    46cb:	01 ca 	addl	%ecx, %edx
    46cd:	89 10 	movl	%edx, (%rax)
    46cf:	48 8b 85 f0 fd ff ff 	movq	-528(%rbp), %rax
    46d6:	48 83 e8 08 	subq	$8, %rax
    46da:	48 89 85 f0 fd ff ff 	movq	%rax, -528(%rbp)
    46e1:	e9 77 f8 ff ff 	jmp	-1929 <.text+0x370d>
    46e6:	80 bd cf fd ff ff bf 	cmpb	$-65, -561(%rbp)
    46ed:	75 2a 	jne	42 <.text+0x3ec9>
    46ef:	48 8b 85 f8 fd ff ff 	movq	-520(%rbp), %rax
    46f6:	48 83 c0 01 	addq	$1, %rax
    46fa:	48 89 85 f8 fd ff ff 	movq	%rax, -520(%rbp)
    4701:	48 8b 85 f0 fd ff ff 	movq	-528(%rbp), %rax
    4708:	48 8b 10 	movq	(%rax), %rdx
    470b:	48 8b 85 f0 fd ff ff 	movq	-528(%rbp), %rax
    4712:	88 10 	movb	%dl, (%rax)
    4714:	e9 44 f8 ff ff 	jmp	-1980 <.text+0x370d>
    4719:	80 bd cf fd ff ff 19 	cmpb	$25, -561(%rbp)
    4720:	75 52 	jne	82 <.text+0x3f24>
    4722:	48 8b 85 f8 fd ff ff 	movq	-520(%rbp), %rax
    4729:	48 83 c0 01 	addq	$1, %rax
    472d:	48 89 85 f8 fd ff ff 	movq	%rax, -520(%rbp)
    4734:	48 8b 85 f0 fd ff ff 	movq	-528(%rbp), %rax
    473b:	48 8b 08 	movq	(%rax), %rcx
    473e:	48 8b 85 f0 fd ff ff 	movq	-528(%rbp), %rax
    4745:	48 83 e8 08 	subq	$8, %rax
    4749:	48 8b 10 	movq	(%rax), %rdx
    474c:	48 8b 85 f0 fd ff ff 	movq	-528(%rbp), %rax
    4753:	48 83 e8 08 	subq	$8, %rax
    4757:	48 31 ca 	xorq	%rcx, %rdx
    475a:	48 89 10 	movq	%rdx, (%rax)
    475d:	48 8b 85 f0 fd ff ff 	movq	-528(%rbp), %rax
    4764:	48 83 e8 08 	subq	$8, %rax
    4768:	48 89 85 f0 fd ff ff 	movq	%rax, -528(%rbp)
    476f:	e9 e9 f7 ff ff 	jmp	-2071 <.text+0x370d>
    4774:	80 bd cf fd ff ff d6 	cmpb	$-42, -561(%rbp)
    477b:	75 2d 	jne	45 <.text+0x3f5a>
    477d:	48 8b 85 f8 fd ff ff 	movq	-520(%rbp), %rax
    4784:	48 83 c0 01 	addq	$1, %rax
    4788:	48 89 85 f8 fd ff ff 	movq	%rax, -520(%rbp)
    478f:	48 8b 85 f0 fd ff ff 	movq	-528(%rbp), %rax
    4796:	0f b6 10 	movzbl	(%rax), %edx
    4799:	48 8b 85 f0 fd ff ff 	movq	-528(%rbp), %rax
    47a0:	0f be d2 	movsbl	%dl, %edx
    47a3:	89 10 	movl	%edx, (%rax)
    47a5:	e9 b3 f7 ff ff 	jmp	-2125 <.text+0x370d>
    47aa:	80 bd cf fd ff ff a3 	cmpb	$-93, -561(%rbp)
    47b1:	75 53 	jne	83 <.text+0x3fb6>
    47b3:	48 8b 85 f8 fd ff ff 	movq	-520(%rbp), %rax
    47ba:	48 83 c0 01 	addq	$1, %rax
    47be:	48 89 85 f8 fd ff ff 	movq	%rax, -520(%rbp)
    47c5:	48 8b 85 f8 fd ff ff 	movq	-520(%rbp), %rax
    47cc:	48 8b 95 f0 fd ff ff 	movq	-528(%rbp), %rdx
    47d3:	48 83 c2 08 	addq	$8, %rdx
    47d7:	48 8b 00 	movq	(%rax), %rax
    47da:	48 89 02 	movq	%rax, (%rdx)
    47dd:	48 8b 85 f0 fd ff ff 	movq	-528(%rbp), %rax
    47e4:	48 83 c0 08 	addq	$8, %rax
    47e8:	48 89 85 f0 fd ff ff 	movq	%rax, -528(%rbp)
    47ef:	48 8b 85 f8 fd ff ff 	movq	-520(%rbp), %rax
    47f6:	48 83 c0 08 	addq	$8, %rax
    47fa:	48 89 85 f8 fd ff ff 	movq	%rax, -520(%rbp)
    4801:	e9 57 f7 ff ff 	jmp	-2217 <.text+0x370d>
    4806:	80 bd cf fd ff ff a0 	cmpb	$-96, -561(%rbp)
    480d:	75 53 	jne	83 <.text+0x4012>
    480f:	48 8b 85 f8 fd ff ff 	movq	-520(%rbp), %rax
    4816:	48 83 c0 01 	addq	$1, %rax
    481a:	48 89 85 f8 fd ff ff 	movq	%rax, -520(%rbp)
    4821:	48 8b 85 f0 fd ff ff 	movq	-528(%rbp), %rax
    4828:	48 83 e8 08 	subq	$8, %rax
    482c:	48 8b 08 	movq	(%rax), %rcx
    482f:	48 8b 85 f0 fd ff ff 	movq	-528(%rbp), %rax
    4836:	48 8b 00 	movq	(%rax), %rax
    4839:	48 8b 95 f0 fd ff ff 	movq	-528(%rbp), %rdx
    4840:	48 83 ea 08 	subq	$8, %rdx
    4844:	48 0f af c1 	imulq	%rcx, %rax
    4848:	48 89 02 	movq	%rax, (%rdx)
    484b:	48 8b 85 f0 fd ff ff 	movq	-528(%rbp), %rax
    4852:	48 83 e8 08 	subq	$8, %rax
    4856:	48 89 85 f0 fd ff ff 	movq	%rax, -528(%rbp)
    485d:	e9 fb f6 ff ff 	jmp	-2309 <.text+0x370d>
    4862:	80 bd cf fd ff ff 3a 	cmpb	$58, -561(%rbp)
    4869:	75 52 	jne	82 <.text+0x406d>
    486b:	48 8b 85 f8 fd ff ff 	movq	-520(%rbp), %rax
    4872:	48 83 c0 01 	addq	$1, %rax
    4876:	48 89 85 f8 fd ff ff 	movq	%rax, -520(%rbp)
    487d:	48 8b 85 f0 fd ff ff 	movq	-528(%rbp), %rax
    4884:	8b 30 	movl	(%rax), %esi
    4886:	48 8b 85 f0 fd ff ff 	movq	-528(%rbp), %rax
    488d:	48 83 e8 08 	subq	$8, %rax
    4891:	8b 00 	movl	(%rax), %eax
    4893:	48 8b 95 f0 fd ff ff 	movq	-528(%rbp), %rdx
    489a:	48 83 ea 08 	subq	$8, %rdx
    489e:	89 c1 	movl	%eax, %ecx
    48a0:	d3 ee 	shrl	%cl, %esi
    48a2:	89 f0 	movl	%esi, %eax
    48a4:	89 02 	movl	%eax, (%rdx)
    48a6:	48 8b 85 f0 fd ff ff 	movq	-528(%rbp), %rax
    48ad:	48 83 e8 08 	subq	$8, %rax
    48b1:	48 89 85 f0 fd ff ff 	movq	%rax, -528(%rbp)
    48b8:	e9 a0 f6 ff ff 	jmp	-2400 <.text+0x370d>
    48bd:	80 bd cf fd ff ff 3e 	cmpb	$62, -561(%rbp)
    48c4:	75 34 	jne	52 <.text+0x40aa>
    48c6:	48 8b 85 f8 fd ff ff 	movq	-520(%rbp), %rax
    48cd:	48 83 c0 01 	addq	$1, %rax
    48d1:	48 89 85 f8 fd ff ff 	movq	%rax, -520(%rbp)
    48d8:	48 8b 85 f0 fd ff ff 	movq	-528(%rbp), %rax
    48df:	48 8b 00 	movq	(%rax), %rax
    48e2:	48 8b 7d f8 	movq	-8(%rbp), %rdi
    48e6:	64 48 33 3c 25 28 00 00 00 	xorq	%fs:40, %rdi
    48ef:	0f 84 92 07 00 00 	je	1938 <.text+0x4837>
    48f5:	e9 88 07 00 00 	jmp	1928 <.text+0x4832>
    48fa:	80 bd cf fd ff ff e3 	cmpb	$-29, -561(%rbp)
    4901:	75 2c 	jne	44 <.text+0x40df>
    4903:	48 8b 85 f8 fd ff ff 	movq	-520(%rbp), %rax
    490a:	48 83 c0 01 	addq	$1, %rax
    490e:	48 89 85 f8 fd ff ff 	movq	%rax, -520(%rbp)
    4915:	48 8b 85 f0 fd ff ff 	movq	-528(%rbp), %rax
    491c:	48 8b 10 	movq	(%rax), %rdx
    491f:	48 8b 85 f0 fd ff ff 	movq	-528(%rbp), %rax
    4926:	8b 12 	movl	(%rdx), %edx
    4928:	89 10 	movl	%edx, (%rax)
    492a:	e9 2e f6 ff ff 	jmp	-2514 <.text+0x370d>
    492f:	80 bd cf fd ff ff e1 	cmpb	$-31, -561(%rbp)
    4936:	75 66 	jne	102 <.text+0x414e>
    4938:	48 8b 85 f8 fd ff ff 	movq	-520(%rbp), %rax
    493f:	48 83 c0 01 	addq	$1, %rax
    4943:	48 89 85 f8 fd ff ff 	movq	%rax, -520(%rbp)
    494a:	48 8b 85 f0 fd ff ff 	movq	-528(%rbp), %rax
    4951:	8b 00 	movl	(%rax), %eax
    4953:	85 c0 	testl	%eax, %eax
    4955:	74 1e 	je	30 <.text+0x4125>
    4957:	48 8b 95 f8 fd ff ff 	movq	-520(%rbp), %rdx
    495e:	48 8b 85 f8 fd ff ff 	movq	-520(%rbp), %rax
    4965:	8b 00 	movl	(%rax), %eax
    4967:	48 98 	cltq
    4969:	48 01 d0 	addq	%rdx, %rax
    496c:	48 89 85 f8 fd ff ff 	movq	%rax, -520(%rbp)
    4973:	eb 12 	jmp	18 <.text+0x4137>
    4975:	48 8b 85 f8 fd ff ff 	movq	-520(%rbp), %rax
    497c:	48 83 c0 04 	addq	$4, %rax
    4980:	48 89 85 f8 fd ff ff 	movq	%rax, -520(%rbp)
    4987:	48 8b 85 f0 fd ff ff 	movq	-528(%rbp), %rax
    498e:	48 83 e8 08 	subq	$8, %rax
    4992:	48 89 85 f0 fd ff ff 	movq	%rax, -528(%rbp)
    4999:	e9 bf f5 ff ff 	jmp	-2625 <.text+0x370d>
    499e:	80 bd cf fd ff ff 60 	cmpb	$96, -561(%rbp)
    49a5:	75 44 	jne	68 <.text+0x419b>
    49a7:	48 8b 85 f8 fd ff ff 	movq	-520(%rbp), %rax
    49ae:	48 83 c0 01 	addq	$1, %rax
    49b2:	48 89 85 f8 fd ff ff 	movq	%rax, -520(%rbp)
    49b9:	48 8b 85 f0 fd ff ff 	movq	-528(%rbp), %rax
    49c0:	48 8d 50 f8 	leaq	-8(%rax), %rdx
    49c4:	48 8b 85 f0 fd ff ff 	movq	-528(%rbp), %rax
    49cb:	48 8b 00 	movq	(%rax), %rax
    49ce:	48 8b 12 	movq	(%rdx), %rdx
    49d1:	48 89 10 	movq	%rdx, (%rax)
    49d4:	48 8b 85 f0 fd ff ff 	movq	-528(%rbp), %rax
    49db:	48 83 e8 10 	subq	$16, %rax
    49df:	48 89 85 f0 fd ff ff 	movq	%rax, -528(%rbp)
    49e6:	e9 72 f5 ff ff 	jmp	-2702 <.text+0x370d>
    49eb:	80 bd cf fd ff ff 96 	cmpb	$-106, -561(%rbp)
    49f2:	75 52 	jne	82 <.text+0x41f6>
    49f4:	48 8b 85 f8 fd ff ff 	movq	-520(%rbp), %rax
    49fb:	48 83 c0 01 	addq	$1, %rax
    49ff:	48 89 85 f8 fd ff ff 	movq	%rax, -520(%rbp)
    4a06:	48 8b 85 f0 fd ff ff 	movq	-528(%rbp), %rax
    4a0d:	48 83 e8 08 	subq	$8, %rax
    4a11:	48 8b 08 	movq	(%rax), %rcx
    4a14:	48 8b 85 f0 fd ff ff 	movq	-528(%rbp), %rax
    4a1b:	48 8b 10 	movq	(%rax), %rdx
    4a1e:	48 8b 85 f0 fd ff ff 	movq	-528(%rbp), %rax
    4a25:	48 83 e8 08 	subq	$8, %rax
    4a29:	48 09 ca 	orq	%rcx, %rdx
    4a2c:	48 89 10 	movq	%rdx, (%rax)
    4a2f:	48 8b 85 f0 fd ff ff 	movq	-528(%rbp), %rax
    4a36:	48 83 e8 08 	subq	$8, %rax
    4a3a:	48 89 85 f0 fd ff ff 	movq	%rax, -528(%rbp)
    4a41:	e9 17 f5 ff ff 	jmp	-2793 <.text+0x370d>
    4a46:	80 bd cf fd ff ff 13 	cmpb	$19, -561(%rbp)
    4a4d:	75 56 	jne	86 <.text+0x4255>
    4a4f:	48 8b 85 f8 fd ff ff 	movq	-520(%rbp), %rax
    4a56:	48 83 c0 01 	addq	$1, %rax
    4a5a:	48 89 85 f8 fd ff ff 	movq	%rax, -520(%rbp)
    4a61:	48 8b 85 f0 fd ff ff 	movq	-528(%rbp), %rax
    4a68:	48 8b 30 	movq	(%rax), %rsi
    4a6b:	48 8b 85 f0 fd ff ff 	movq	-528(%rbp), %rax
    4a72:	48 83 e8 08 	subq	$8, %rax
    4a76:	8b 00 	movl	(%rax), %eax
    4a78:	48 8b 95 f0 fd ff ff 	movq	-528(%rbp), %rdx
    4a7f:	48 83 ea 08 	subq	$8, %rdx
    4a83:	89 c1 	movl	%eax, %ecx
    4a85:	48 d3 fe 	sarq	%cl, %rsi
    4a88:	48 89 f0 	movq	%rsi, %rax
    4a8b:	48 89 02 	movq	%rax, (%rdx)
    4a8e:	48 8b 85 f0 fd ff ff 	movq	-528(%rbp), %rax
    4a95:	48 83 e8 08 	subq	$8, %rax
    4a99:	48 89 85 f0 fd ff ff 	movq	%rax, -528(%rbp)
    4aa0:	e9 b8 f4 ff ff 	jmp	-2888 <.text+0x370d>
    4aa5:	80 bd cf fd ff ff 9b 	cmpb	$-101, -561(%rbp)
    4aac:	75 2c 	jne	44 <.text+0x428a>
    4aae:	48 8b 85 f8 fd ff ff 	movq	-520(%rbp), %rax
    4ab5:	48 83 c0 01 	addq	$1, %rax
    4ab9:	48 89 85 f8 fd ff ff 	movq	%rax, -520(%rbp)
    4ac0:	48 8b 85 f0 fd ff ff 	movq	-528(%rbp), %rax
    4ac7:	8b 10 	movl	(%rax), %edx
    4ac9:	48 8b 85 f0 fd ff ff 	movq	-528(%rbp), %rax
    4ad0:	89 d2 	movl	%edx, %edx
    4ad2:	48 89 10 	movq	%rdx, (%rax)
    4ad5:	e9 83 f4 ff ff 	jmp	-2941 <.text+0x370d>
    4ada:	80 bd cf fd ff ff 4e 	cmpb	$78, -561(%rbp)
    4ae1:	75 51 	jne	81 <.text+0x42e4>
    4ae3:	48 8b 85 f8 fd ff ff 	movq	-520(%rbp), %rax
    4aea:	48 83 c0 01 	addq	$1, %rax
    4aee:	48 89 85 f8 fd ff ff 	movq	%rax, -520(%rbp)
    4af5:	48 8b 85 f8 fd ff ff 	movq	-520(%rbp), %rax
    4afc:	48 8b 95 f0 fd ff ff 	movq	-528(%rbp), %rdx
    4b03:	48 83 c2 08 	addq	$8, %rdx
    4b07:	8b 00 	movl	(%rax), %eax
    4b09:	89 02 	movl	%eax, (%rdx)
    4b0b:	48 8b 85 f0 fd ff ff 	movq	-528(%rbp), %rax
    4b12:	48 83 c0 08 	addq	$8, %rax
    4b16:	48 89 85 f0 fd ff ff 	movq	%rax, -528(%rbp)
    4b1d:	48 8b 85 f8 fd ff ff 	movq	-520(%rbp), %rax
    4b24:	48 83 c0 04 	addq	$4, %rax
    4b28:	48 89 85 f8 fd ff ff 	movq	%rax, -520(%rbp)
    4b2f:	e9 29 f4 ff ff 	jmp	-3031 <.text+0x370d>
    4b34:	80 bd cf fd ff ff 34 	cmpb	$52, -561(%rbp)
    4b3b:	75 54 	jne	84 <.text+0x4341>
    4b3d:	48 8b 85 f8 fd ff ff 	movq	-520(%rbp), %rax
    4b44:	48 83 c0 01 	addq	$1, %rax
    4b48:	48 89 85 f8 fd ff ff 	movq	%rax, -520(%rbp)
    4b4f:	48 8b 85 f0 fd ff ff 	movq	-528(%rbp), %rax
    4b56:	48 83 e8 08 	subq	$8, %rax
    4b5a:	8b 10 	movl	(%rax), %edx
    4b5c:	48 8b 85 f0 fd ff ff 	movq	-528(%rbp), %rax
    4b63:	8b 00 	movl	(%rax), %eax
    4b65:	39 c2 	cmpl	%eax, %edx
    4b67:	0f 93 c1 	setae	%cl
    4b6a:	48 8b 85 f0 fd ff ff 	movq	-528(%rbp), %rax
    4b71:	48 8d 50 f8 	leaq	-8(%rax), %rdx
    4b75:	0f b6 c1 	movzbl	%cl, %eax
    4b78:	89 02 	movl	%eax, (%rdx)
    4b7a:	48 8b 85 f0 fd ff ff 	movq	-528(%rbp), %rax
    4b81:	48 83 e8 08 	subq	$8, %rax
    4b85:	48 89 85 f0 fd ff ff 	movq	%rax, -528(%rbp)
    4b8c:	e9 cc f3 ff ff 	jmp	-3124 <.text+0x370d>
    4b91:	80 bd cf fd ff ff da 	cmpb	$-38, -561(%rbp)
    4b98:	75 2a 	jne	42 <.text+0x4374>
    4b9a:	48 8b 85 f8 fd ff ff 	movq	-520(%rbp), %rax
    4ba1:	48 83 c0 01 	addq	$1, %rax
    4ba5:	48 89 85 f8 fd ff ff 	movq	%rax, -520(%rbp)
    4bac:	48 8b 85 f0 fd ff ff 	movq	-528(%rbp), %rax
    4bb3:	48 8b 10 	movq	(%rax), %rdx
    4bb6:	48 8b 85 f0 fd ff ff 	movq	-528(%rbp), %rax
    4bbd:	89 10 	movl	%edx, (%rax)
    4bbf:	e9 99 f3 ff ff 	jmp	-3175 <.text+0x370d>
    4bc4:	80 bd cf fd ff ff 84 	cmpb	$-124, -561(%rbp)
    4bcb:	75 29 	jne	41 <.text+0x43a6>
    4bcd:	48 8b 85 f8 fd ff ff 	movq	-520(%rbp), %rax
    4bd4:	48 83 c0 01 	addq	$1, %rax
    4bd8:	48 89 85 f8 fd ff ff 	movq	%rax, -520(%rbp)
    4bdf:	48 8b 85 f0 fd ff ff 	movq	-528(%rbp), %rax
    4be6:	8b 10 	movl	(%rax), %edx
    4be8:	48 8b 85 f0 fd ff ff 	movq	-528(%rbp), %rax
    4bef:	89 10 	movl	%edx, (%rax)
    4bf1:	e9 67 f3 ff ff 	jmp	-3225 <.text+0x370d>
    4bf6:	80 bd cf fd ff ff c4 	cmpb	$-60, -561(%rbp)
    4bfd:	75 53 	jne	83 <.text+0x4402>
    4bff:	48 8b 85 f8 fd ff ff 	movq	-520(%rbp), %rax
    4c06:	48 83 c0 01 	addq	$1, %rax
    4c0a:	48 89 85 f8 fd ff ff 	movq	%rax, -520(%rbp)
    4c11:	48 8b 85 f8 fd ff ff 	movq	-520(%rbp), %rax
    4c18:	48 8b 95 f0 fd ff ff 	movq	-528(%rbp), %rdx
    4c1f:	48 83 c2 08 	addq	$8, %rdx
    4c23:	48 8b 00 	movq	(%rax), %rax
    4c26:	48 89 02 	movq	%rax, (%rdx)
    4c29:	48 8b 85 f0 fd ff ff 	movq	-528(%rbp), %rax
    4c30:	48 83 c0 08 	addq	$8, %rax
    4c34:	48 89 85 f0 fd ff ff 	movq	%rax, -528(%rbp)
    4c3b:	48 8b 85 f8 fd ff ff 	movq	-520(%rbp), %rax
    4c42:	48 83 c0 08 	addq	$8, %rax
    4c46:	48 89 85 f8 fd ff ff 	movq	%rax, -520(%rbp)
    4c4d:	e9 0b f3 ff ff 	jmp	-3317 <.text+0x370d>
    4c52:	80 bd cf fd ff ff f8 	cmpb	$-8, -561(%rbp)
    4c59:	75 2d 	jne	45 <.text+0x4438>
    4c5b:	48 8b 85 f8 fd ff ff 	movq	-520(%rbp), %rax
    4c62:	48 83 c0 01 	addq	$1, %rax
    4c66:	48 89 85 f8 fd ff ff 	movq	%rax, -520(%rbp)
    4c6d:	48 8b 85 f0 fd ff ff 	movq	-528(%rbp), %rax
    4c74:	48 8b 10 	movq	(%rax), %rdx
    4c77:	48 8b 85 f0 fd ff ff 	movq	-528(%rbp), %rax
    4c7e:	0f b6 12 	movzbl	(%rdx), %edx
    4c81:	88 10 	movb	%dl, (%rax)
    4c83:	e9 d5 f2 ff ff 	jmp	-3371 <.text+0x370d>
    4c88:	80 bd cf fd ff ff 5f 	cmpb	$95, -561(%rbp)
    4c8f:	75 29 	jne	41 <.text+0x446a>
    4c91:	48 8b 85 f8 fd ff ff 	movq	-520(%rbp), %rax
    4c98:	48 83 c0 01 	addq	$1, %rax
    4c9c:	48 89 85 f8 fd ff ff 	movq	%rax, -520(%rbp)
    4ca3:	48 8b 85 f0 fd ff ff 	movq	-528(%rbp), %rax
    4caa:	8b 10 	movl	(%rax), %edx
    4cac:	48 8b 85 f0 fd ff ff 	movq	-528(%rbp), %rax
    4cb3:	88 10 	movb	%dl, (%rax)
    4cb5:	e9 a3 f2 ff ff 	jmp	-3421 <.text+0x370d>
    4cba:	80 bd cf fd ff ff ba 	cmpb	$-70, -561(%rbp)
    4cc1:	75 2e 	jne	46 <.text+0x44a1>
    4cc3:	48 8b 85 f8 fd ff ff 	movq	-520(%rbp), %rax
    4cca:	48 83 c0 01 	addq	$1, %rax
    4cce:	48 89 85 f8 fd ff ff 	movq	%rax, -520(%rbp)
    4cd5:	48 8b 85 f0 fd ff ff 	movq	-528(%rbp), %rax
    4cdc:	48 8b 10 	movq	(%rax), %rdx
    4cdf:	48 8b 85 f0 fd ff ff 	movq	-528(%rbp), %rax
    4ce6:	48 8b 12 	movq	(%rdx), %rdx
    4ce9:	48 89 10 	movq	%rdx, (%rax)
    4cec:	e9 6c f2 ff ff 	jmp	-3476 <.text+0x370d>
    4cf1:	80 bd cf fd ff ff af 	cmpb	$-81, -561(%rbp)
    4cf8:	75 4e 	jne	78 <.text+0x44f8>
    4cfa:	48 8b 85 f8 fd ff ff 	movq	-520(%rbp), %rax
    4d01:	48 83 c0 01 	addq	$1, %rax
    4d05:	48 89 85 f8 fd ff ff 	movq	%rax, -520(%rbp)
    4d0c:	48 8b 85 f0 fd ff ff 	movq	-528(%rbp), %rax
    4d13:	48 83 e8 08 	subq	$8, %rax
    4d17:	8b 08 	movl	(%rax), %ecx
    4d19:	48 8b 85 f0 fd ff ff 	movq	-528(%rbp), %rax
    4d20:	8b 10 	movl	(%rax), %edx
    4d22:	48 8b 85 f0 fd ff ff 	movq	-528(%rbp), %rax
    4d29:	48 83 e8 08 	subq	$8, %rax
    4d2d:	21 ca 	andl	%ecx, %edx
    4d2f:	89 10 	movl	%edx, (%rax)
    4d31:	48 8b 85 f0 fd ff ff 	movq	-528(%rbp), %rax
    4d38:	48 83 e8 08 	subq	$8, %rax
    4d3c:	48 89 85 f0 fd ff ff 	movq	%rax, -528(%rbp)
    4d43:	e9 15 f2 ff ff 	jmp	-3563 <.text+0x370d>
    4d48:	80 bd cf fd ff ff 9c 	cmpb	$-100, -561(%rbp)
    4d4f:	75 33 	jne	51 <.text+0x4534>
    4d51:	48 8b 85 f8 fd ff ff 	movq	-520(%rbp), %rax
    4d58:	48 83 c0 01 	addq	$1, %rax
    4d5c:	48 89 85 f8 fd ff ff 	movq	%rax, -520(%rbp)
    4d63:	48 8b 95 f8 fd ff ff 	movq	-520(%rbp), %rdx
    4d6a:	48 8b 85 f8 fd ff ff 	movq	-520(%rbp), %rax
    4d71:	8b 00 	movl	(%rax), %eax
    4d73:	48 98 	cltq
    4d75:	48 01 d0 	addq	%rdx, %rax
    4d78:	48 89 85 f8 fd ff ff 	movq	%rax, -520(%rbp)
    4d7f:	e9 d9 f1 ff ff 	jmp	-3623 <.text+0x370d>
    4d84:	80 bd cf fd ff ff 09 	cmpb	$9, -561(%rbp)
    4d8b:	75 52 	jne	82 <.text+0x458f>
    4d8d:	48 8b 85 f8 fd ff ff 	movq	-520(%rbp), %rax
    4d94:	48 83 c0 01 	addq	$1, %rax
    4d98:	48 89 85 f8 fd ff ff 	movq	%rax, -520(%rbp)
    4d9f:	48 8b 85 f0 fd ff ff 	movq	-528(%rbp), %rax
    4da6:	8b 30 	movl	(%rax), %esi
    4da8:	48 8b 85 f0 fd ff ff 	movq	-528(%rbp), %rax
    4daf:	48 83 e8 08 	subq	$8, %rax
    4db3:	8b 00 	movl	(%rax), %eax
    4db5:	48 8b 95 f0 fd ff ff 	movq	-528(%rbp), %rdx
    4dbc:	48 83 ea 08 	subq	$8, %rdx
    4dc0:	89 c1 	movl	%eax, %ecx
    4dc2:	d3 e6 	shll	%cl, %esi
    4dc4:	89 f0 	movl	%esi, %eax
    4dc6:	89 02 	movl	%eax, (%rdx)
    4dc8:	48 8b 85 f0 fd ff ff 	movq	-528(%rbp), %rax
    4dcf:	48 83 e8 08 	subq	$8, %rax
    4dd3:	48 89 85 f0 fd ff ff 	movq	%rax, -528(%rbp)
    4dda:	e9 7e f1 ff ff 	jmp	-3714 <.text+0x370d>
    4ddf:	80 bd cf fd ff ff 7e 	cmpb	$126, -561(%rbp)
    4de6:	75 51 	jne	81 <.text+0x45e9>
    4de8:	48 8b 85 f8 fd ff ff 	movq	-520(%rbp), %rax
    4def:	48 83 c0 01 	addq	$1, %rax
    4df3:	48 89 85 f8 fd ff ff 	movq	%rax, -520(%rbp)
    4dfa:	48 8b 85 f8 fd ff ff 	movq	-520(%rbp), %rax
    4e01:	48 8b 95 f0 fd ff ff 	movq	-528(%rbp), %rdx
    4e08:	48 83 c2 08 	addq	$8, %rdx
    4e0c:	8b 00 	movl	(%rax), %eax
    4e0e:	89 02 	movl	%eax, (%rdx)
    4e10:	48 8b 85 f0 fd ff ff 	movq	-528(%rbp), %rax
    4e17:	48 83 c0 08 	addq	$8, %rax
    4e1b:	48 89 85 f0 fd ff ff 	movq	%rax, -528(%rbp)
    4e22:	48 8b 85 f8 fd ff ff 	movq	-520(%rbp), %rax
    4e29:	48 83 c0 04 	addq	$4, %rax
    4e2d:	48 89 85 f8 fd ff ff 	movq	%rax, -520(%rbp)
    4e34:	e9 24 f1 ff ff 	jmp	-3804 <.text+0x370d>
    4e39:	80 bd cf fd ff ff e9 	cmpb	$-23, -561(%rbp)
    4e40:	75 52 	jne	82 <.text+0x4644>
    4e42:	48 8b 85 f8 fd ff ff 	movq	-520(%rbp), %rax
    4e49:	48 83 c0 01 	addq	$1, %rax
    4e4d:	48 89 85 f8 fd ff ff 	movq	%rax, -520(%rbp)
    4e54:	48 8b 85 f0 fd ff ff 	movq	-528(%rbp), %rax
    4e5b:	48 8b 08 	movq	(%rax), %rcx
    4e5e:	48 8b 85 f0 fd ff ff 	movq	-528(%rbp), %rax
    4e65:	48 83 e8 08 	subq	$8, %rax
    4e69:	48 8b 10 	movq	(%rax), %rdx
    4e6c:	48 8b 85 f0 fd ff ff 	movq	-528(%rbp), %rax
    4e73:	48 83 e8 08 	subq	$8, %rax
    4e77:	48 21 ca 	andq	%rcx, %rdx
    4e7a:	48 89 10 	movq	%rdx, (%rax)
    4e7d:	48 8b 85 f0 fd ff ff 	movq	-528(%rbp), %rax
    4e84:	48 83 e8 08 	subq	$8, %rax
    4e88:	48 89 85 f0 fd ff ff 	movq	%rax, -528(%rbp)
    4e8f:	e9 c9 f0 ff ff 	jmp	-3895 <.text+0x370d>
    4e94:	80 bd cf fd ff ff 7d 	cmpb	$125, -561(%rbp)
    4e9b:	75 4e 	jne	78 <.text+0x469b>
    4e9d:	48 8b 85 f8 fd ff ff 	movq	-520(%rbp), %rax
    4ea4:	48 83 c0 01 	addq	$1, %rax
    4ea8:	48 89 85 f8 fd ff ff 	movq	%rax, -520(%rbp)
    4eaf:	48 8b 85 f0 fd ff ff 	movq	-528(%rbp), %rax
    4eb6:	48 83 e8 08 	subq	$8, %rax
    4eba:	8b 08 	movl	(%rax), %ecx
    4ebc:	48 8b 85 f0 fd ff ff 	movq	-528(%rbp), %rax
    4ec3:	8b 10 	movl	(%rax), %edx
    4ec5:	48 8b 85 f0 fd ff ff 	movq	-528(%rbp), %rax
    4ecc:	48 83 e8 08 	subq	$8, %rax
    4ed0:	09 ca 	orl	%ecx, %edx
    4ed2:	89 10 	movl	%edx, (%rax)
    4ed4:	48 8b 85 f0 fd ff ff 	movq	-528(%rbp), %rax
    4edb:	48 83 e8 08 	subq	$8, %rax
    4edf:	48 89 85 f0 fd ff ff 	movq	%rax, -528(%rbp)
    4ee6:	e9 72 f0 ff ff 	jmp	-3982 <.text+0x370d>
    4eeb:	80 bd cf fd ff ff f1 	cmpb	$-15, -561(%rbp)
    4ef2:	75 54 	jne	84 <.text+0x46f8>
    4ef4:	48 8b 85 f8 fd ff ff 	movq	-520(%rbp), %rax
    4efb:	48 83 c0 01 	addq	$1, %rax
    4eff:	48 89 85 f8 fd ff ff 	movq	%rax, -520(%rbp)
    4f06:	48 8b 85 f0 fd ff ff 	movq	-528(%rbp), %rax
    4f0d:	8b 10 	movl	(%rax), %edx
    4f0f:	48 8b 85 f0 fd ff ff 	movq	-528(%rbp), %rax
    4f16:	48 83 e8 08 	subq	$8, %rax
    4f1a:	8b 00 	movl	(%rax), %eax
    4f1c:	39 c2 	cmpl	%eax, %edx
    4f1e:	0f 94 c1 	sete	%cl
    4f21:	48 8b 85 f0 fd ff ff 	movq	-528(%rbp), %rax
    4f28:	48 8d 50 f8 	leaq	-8(%rax), %rdx
    4f2c:	0f b6 c1 	movzbl	%cl, %eax
    4f2f:	89 02 	movl	%eax, (%rdx)
    4f31:	48 8b 85 f0 fd ff ff 	movq	-528(%rbp), %rax
    4f38:	48 83 e8 08 	subq	$8, %rax
    4f3c:	48 89 85 f0 fd ff ff 	movq	%rax, -528(%rbp)
    4f43:	e9 15 f0 ff ff 	jmp	-4075 <.text+0x370d>
    4f48:	80 bd cf fd ff ff 50 	cmpb	$80, -561(%rbp)
    4f4f:	0f 85 08 f0 ff ff 	jne	-4088 <.text+0x370d>
    4f55:	48 8b 85 f8 fd ff ff 	movq	-520(%rbp), %rax
    4f5c:	48 83 c0 01 	addq	$1, %rax
    4f60:	48 89 85 f8 fd ff ff 	movq	%rax, -520(%rbp)
    4f67:	48 8b 85 f8 fd ff ff 	movq	-520(%rbp), %rax
    4f6e:	8b 00 	movl	(%rax), %eax
    4f70:	83 f8 07 	cmpl	$7, %eax
    4f73:	0f 87 e0 00 00 00 	ja	224 <.text+0x4809>
    4f79:	89 c0 	movl	%eax, %eax
    4f7b:	48 8d 14 85 00 00 00 00 	leaq	(,%rax,4), %rdx
    4f83:	48 8d 05 06 02 00 00 	leaq	518(%rip), %rax
    4f8a:	8b 04 02 	movl	(%rdx,%rax), %eax
    4f8d:	48 63 d0 	movslq	%eax, %rdx
    4f90:	48 8d 05 f9 01 00 00 	leaq	505(%rip), %rax
    4f97:	48 01 d0 	addq	%rdx, %rax
    4f9a:	ff e0 	jmpq	*%rax
    4f9c:	48 8b 85 f0 fd ff ff 	movq	-528(%rbp), %rax
    4fa3:	48 8d 50 08 	leaq	8(%rax), %rdx
    4fa7:	48 8d 05 32 2c 20 00 	leaq	2108466(%rip), %rax
    4fae:	48 89 02 	movq	%rax, (%rdx)
    4fb1:	e9 a3 00 00 00 	jmp	163 <.text+0x4809>
    4fb6:	48 8b 85 f0 fd ff ff 	movq	-528(%rbp), %rax
    4fbd:	48 8d 50 08 	leaq	8(%rax), %rdx
    4fc1:	48 8d 05 d8 2c 20 00 	leaq	2108632(%rip), %rax
    4fc8:	48 89 02 	movq	%rax, (%rdx)
    4fcb:	e9 89 00 00 00 	jmp	137 <.text+0x4809>
    4fd0:	48 8b 85 f0 fd ff ff 	movq	-528(%rbp), %rax
    4fd7:	48 8d 50 08 	leaq	8(%rax), %rdx
    4fdb:	48 8d 05 3e 2d 20 00 	leaq	2108734(%rip), %rax
    4fe2:	48 89 02 	movq	%rax, (%rdx)
    4fe5:	eb 72 	jmp	114 <.text+0x4809>
    4fe7:	48 8b 85 f0 fd ff ff 	movq	-528(%rbp), %rax
    4fee:	48 8d 50 08 	leaq	8(%rax), %rdx
    4ff2:	48 8d 05 67 2c 20 00 	leaq	2108519(%rip), %rax
    4ff9:	48 89 02 	movq	%rax, (%rdx)
    4ffc:	eb 5b 	jmp	91 <.text+0x4809>
    4ffe:	48 8b 85 f0 fd ff ff 	movq	-528(%rbp), %rax
    5005:	48 8d 50 08 	leaq	8(%rax), %rdx
    5009:	48 8d 05 30 2d 20 00 	leaq	2108720(%rip), %rax
    5010:	48 89 02 	movq	%rax, (%rdx)
    5013:	eb 44 	jmp	68 <.text+0x4809>
    5015:	48 8b 85 f0 fd ff ff 	movq	-528(%rbp), %rax
    501c:	48 8d 50 08 	leaq	8(%rax), %rdx
    5020:	48 8d 05 a9 2c 20 00 	leaq	2108585(%rip), %rax
    5027:	48 89 02 	movq	%rax, (%rdx)
    502a:	eb 2d 	jmp	45 <.text+0x4809>
    502c:	48 8b 85 f0 fd ff ff 	movq	-528(%rbp), %rax
    5033:	48 8d 50 08 	leaq	8(%rax), %rdx
    5037:	48 8d 05 a2 2c 20 00 	leaq	2108578(%rip), %rax
    503e:	48 89 02 	movq	%rax, (%rdx)
    5041:	eb 16 	jmp	22 <.text+0x4809>
    5043:	48 8b 85 f0 fd ff ff 	movq	-528(%rbp), %rax
    504a:	48 8d 50 08 	leaq	8(%rax), %rdx
    504e:	48 8d 05 cb 2b 20 00 	leaq	2108363(%rip), %rax
    5055:	48 89 02 	movq	%rax, (%rdx)
    5058:	90 	nop
    5059:	48 8b 85 f0 fd ff ff 	movq	-528(%rbp), %rax
    5060:	48 83 c0 08 	addq	$8, %rax
    5064:	48 89 85 f0 fd ff ff 	movq	%rax, -528(%rbp)
    506b:	48 8b 85 f8 fd ff ff 	movq	-520(%rbp), %rax
    5072:	48 83 c0 04 	addq	$4, %rax
    5076:	48 89 85 f8 fd ff ff 	movq	%rax, -520(%rbp)
    507d:	e9 db ee ff ff 	jmp	-4389 <.text+0x370d>
    5082:	e8 49 b7 ff ff 	callq	-18615 <.plt+0x40>
    5087:	c9 	leave
    5088:	c3 	retq
    5089:	0f 1f 80 00 00 00 00 	nopl	(%rax)
    5090:	41 57 	pushq	%r15
    5092:	41 56 	pushq	%r14
    5094:	49 89 d7 	movq	%rdx, %r15
    5097:	41 55 	pushq	%r13
    5099:	41 54 	pushq	%r12
    509b:	4c 8d 25 ce 0c 20 00 	leaq	2100430(%rip), %r12
    50a2:	55 	pushq	%rbp
    50a3:	48 8d 2d ce 0c 20 00 	leaq	2100430(%rip), %rbp
    50aa:	53 	pushq	%rbx
    50ab:	41 89 fd 	movl	%edi, %r13d
    50ae:	49 89 f6 	movq	%rsi, %r14
    50b1:	4c 29 e5 	subq	%r12, %rbp
    50b4:	48 83 ec 08 	subq	$8, %rsp
    50b8:	48 c1 fd 03 	sarq	$3, %rbp
    50bc:	e8 b7 b6 ff ff 	callq	-18761 <.init>
    50c1:	48 85 ed 	testq	%rbp, %rbp
    50c4:	74 20 	je	32 <.text+0x4896>
    50c6:	31 db 	xorl	%ebx, %ebx
    50c8:	0f 1f 84 00 00 00 00 00 	nopl	(%rax,%rax)
    50d0:	4c 89 fa 	movq	%r15, %rdx
    50d3:	4c 89 f6 	movq	%r14, %rsi
    50d6:	44 89 ef 	movl	%r13d, %edi
    50d9:	41 ff 14 dc 	callq	*(%r12,%rbx,8)
    50dd:	48 83 c3 01 	addq	$1, %rbx
    50e1:	48 39 dd 	cmpq	%rbx, %rbp
    50e4:	75 ea 	jne	-22 <.text+0x4880>
    50e6:	48 83 c4 08 	addq	$8, %rsp
    50ea:	5b 	popq	%rbx
    50eb:	5d 	popq	%rbp
    50ec:	41 5c 	popq	%r12
    50ee:	41 5d 	popq	%r13
    50f0:	41 5e 	popq	%r14
    50f2:	41 5f 	popq	%r15
    50f4:	c3 	retq
    50f5:	90 	nop
    50f6:	66 2e 0f 1f 84 00 00 00 00 00 	nopw	%cs:(%rax,%rax)
    5100:	f3 c3 	rep		retq
Disassembly of section .fini:
.fini:
    5104:	48 83 ec 08 	subq	$8, %rsp
    5108:	48 83 c4 08 	addq	$8, %rsp
    510c:	c3 	retq
Disassembly of section .rodata:
.rodata:
    5110:	01 00 	addl	%eax, (%rax)
    5112:	02 00 	addb	(%rax), %al
    5114:	00 00 	addb	%al, (%rax)
    5116:	00 00 	addb	%al, (%rax)
    5118:	00 00 	addb	%al, (%rax)
    511a:	00 00 	addb	%al, (%rax)
    511c:	00 00 	addb	%al, (%rax)
    511e:	00 00 	addb	%al, (%rax)
    5120:	2f  <unknown>
    5121:	74 6d 	je	109 <.rodata+0x80>
    5123:	70 00 	jo	0 <.rodata+0x15>
    5125:	72 00 	jb	0 <.rodata+0x17>
    5127:	69 6e 63 6f 72 72 65 	imull	$1701999215, 99(%rsi), %ebp
    512e:	63 74 21 20 	movslq	32(%rcx,%riz), %esi
    5132:	3a 28 	cmpb	(%rax), %ch
    5134:	20 0a 	andb	%cl, (%rdx)
    5136:	00 63 6f 	addb	%ah, 111(%rbx)
    5139:	72 72 	jb	114 <.rodata+0x9d>
    513b:	65 63 74 21 20 	movslq	%gs:32(%rcx,%riz), %esi
    5140:	3a 29 	cmpb	(%rcx), %ch
    5142:	20 0a 	andb	%cl, (%rdx)
    5144:	00 00 	addb	%al, (%rax)
    5146:	00 00 	addb	%al, (%rax)
    5148:	af 	scasl	%es:(%rdi), %eax
    5149:	bd ff ff 90 bc 	movl	$3163619327, %ebp
    514e:	ff ff  <unknown>
    5150:	a4 	movsb	(%rsi), %es:(%rdi)
    5151:	bd ff ff 11 bd 	movl	$3172073471, %ebp
    5156:	ff ff  <unknown>
    5158:	48 bd ff ff 8c bd ff ff 60 bc 	movabsq	$-4872613322952998913, %rbp
    5162:	ff ff  <unknown>
    5164:	32 bc ff ff c1 bc ff 	xorb	-4406785(%rdi,%rdi,8), %bh
    516b:	ff e3 	jmpq	*%rbx
    516d:	bc ff ff 6d bd 	movl	$3178102783, %esp
    5172:	ff ff  <unknown>
    5174:	10 bc ff ff 65 6e 74 	adcb	%bh, 1953392127(%rdi,%rdi,8)
    517b:	65 72 20 	jb	32 <.rodata+0x8e>
    517e:	74 68 	je	104
    5180:	65 20 66 6c 	andb	%ah, %gs:108(%rsi)
    5184:	61  <unknown>
    5185:	67 3a 20 	cmpb	(%eax), %ah
    5188:	00 25 33 30 30 73 	addb	%ah, 1932537907(%rip)
    518e:	00 00 	addb	%al, (%rax)
    5190:	57 	pushq	%rdi
    5191:	fe ff  <unknown>
    5193:	ff 0c fe 	decl	(%rsi,%rdi,8)
    5196:	ff ff  <unknown>
    5198:	85 fe 	testl	%edi, %esi
    519a:	ff ff  <unknown>
    519c:	9c 	pushfq
    519d:	fe ff  <unknown>
    519f:	ff 26 	jmpq	*(%rsi)
    51a1:	fe ff  <unknown>
    51a3:	ff 6e fe 	ljmpl	*-2(%rsi)
    51a6:	ff ff  <unknown>
    51a8:	40 fe ff  <unknown>
    51ab:	ff b3  <unknown>
    51ad:	fe ff  <unknown>
    51af:	ff  <unknown>
Disassembly of section .eh_frame_hdr:
.eh_frame_hdr:
    51b0:	01 1b 	addl	%ebx, (%rbx)
    51b2:	03 3b 	addl	(%rbx), %edi
    51b4:	9c 	pushfq
    51b5:	00 00 	addb	%al, (%rax)
    51b7:	00 12 	addb	%dl, (%rdx)
    51b9:	00 00 	addb	%al, (%rax)
    51bb:	00 e0 	addb	%ah, %al
    51bd:	b5 ff 	movb	$-1, %ch
    51bf:	ff e8  <unknown>
    51c1:	00 00 	addb	%al, (%rax)
    51c3:	00 90 b6 ff ff 10 	addb	%dl, 285212598(%rax)
    51c9:	01 00 	addl	%eax, (%rax)
    51cb:	00 a0 b6 ff ff b8 	addb	%ah, -1191182410(%rax)
    51d1:	00 00 	addb	%al, (%rax)
    51d3:	00 aa b7 ff ff 28 	addb	%ch, 687865783(%rdx)
    51d9:	01 00 	addl	%eax, (%rax)
    51db:	00 68 c7 	addb	%ch, -57(%rax)
    51de:	ff ff  <unknown>
    51e0:	4c 01 00 	addq	%r8, (%rax)
    51e3:	00 2f 	addb	%ch, (%rdi)
    51e5:	c9 	leave
    51e6:	ff ff  <unknown>
    51e8:	6c 	insb	%dx, %es:(%rdi)
    51e9:	01 00 	addl	%eax, (%rax)
    51eb:	00 86 ca ff ff 8c 	addb	%al, -1929379894(%rsi)
    51f1:	01 00 	addl	%eax, (%rax)
    51f3:	00 15 cc ff ff ac 	addb	%dl, -1392508980(%rip)
    51f9:	01 00 	addl	%eax, (%rax)
    51fb:	00 1c da 	addb	%bl, (%rdx,%rbx,8)
    51fe:	ff ff  <unknown>
    5200:	cc 	int3
    5201:	01 00 	addl	%eax, (%rax)
    5203:	00 03 	addb	%al, (%rbx)
    5205:	db ff  <unknown>
    5207:	ff ec  <unknown>
    5209:	01 00 	addl	%eax, (%rax)
    520b:	00 5a dc 	addb	%bl, -36(%rdx)
    520e:	ff ff  <unknown>
    5210:	0c 02 	orb	$2, %al
    5212:	00 00 	addb	%al, (%rax)
    5214:	15 dd ff ff 2c 	adcl	$754974685, %eax
    5219:	02 00 	addb	(%rax), %al
    521b:	00 8c dd ff ff 4c 02 	addb	%cl, 38600703(%rbp,%rbx,8)
    5222:	00 00 	addb	%al, (%rax)
    5224:	bb dd ff ff 6c 	movl	$1828716509, %ebx
    5229:	02 00 	addb	(%rax), %al
    522b:	00 82 df ff ff 8c 	addb	%al, -1929379873(%rdx)
    5231:	02 00 	addb	(%rax), %al
    5233:	00 26 	addb	%ah, (%rsi)
    5235:	ec 	inb	%dx, %al
    5236:	ff ff  <unknown>
    5238:	b0 02 	movb	$2, %al
    523a:	00 00 	addb	%al, (%rax)
    523c:	e0 fe 	loopne	-2
    523e:	ff ff  <unknown>
    5240:	d0 02 	rolb	(%rdx)
    5242:	00 00 	addb	%al, (%rax)
    5244:	50 	pushq	%rax
    5245:	ff ff  <unknown>
    5247:	ff 18 	lcalll	*(%rax)
    5249:	03 00 	addl	(%rax), %eax
    524b:	00  <unknown>
Disassembly of section .eh_frame:
.eh_frame:
    5250:	14 00 	adcb	$0, %al
    5252:	00 00 	addb	%al, (%rax)
    5254:	00 00 	addb	%al, (%rax)
    5256:	00 00 	addb	%al, (%rax)
    5258:	01 7a 52 	addl	%edi, 82(%rdx)
    525b:	00 01 	addb	%al, (%rcx)
    525d:	78 10 	js	16 <.eh_frame+0x1f>
    525f:	01 1b 	addl	%ebx, (%rbx)
    5261:	0c 07 	orb	$7, %al
    5263:	08 90 01 07 10 14 	orb	%dl, 336594689(%rax)
    5269:	00 00 	addb	%al, (%rax)
    526b:	00 1c 00 	addb	%bl, (%rax,%rax)
    526e:	00 00 	addb	%al, (%rax)
    5270:	e0 b5 	loopne	-75
    5272:	ff ff  <unknown>
    5274:	2b 00 	subl	(%rax), %eax
    5276:	00 00 	addb	%al, (%rax)
    5278:	00 00 	addb	%al, (%rax)
    527a:	00 00 	addb	%al, (%rax)
    527c:	00 00 	addb	%al, (%rax)
    527e:	00 00 	addb	%al, (%rax)
    5280:	14 00 	adcb	$0, %al
    5282:	00 00 	addb	%al, (%rax)
    5284:	00 00 	addb	%al, (%rax)
    5286:	00 00 	addb	%al, (%rax)
    5288:	01 7a 52 	addl	%edi, 82(%rdx)
    528b:	00 01 	addb	%al, (%rcx)
    528d:	78 10 	js	16 <.eh_frame+0x4f>
    528f:	01 1b 	addl	%ebx, (%rbx)
    5291:	0c 07 	orb	$7, %al
    5293:	08 90 01 00 00 24 	orb	%dl, 603979777(%rax)
    5299:	00 00 	addb	%al, (%rax)
    529b:	00 1c 00 	addb	%bl, (%rax,%rax)
    529e:	00 00 	addb	%al, (%rax)
    52a0:	f0 	lock
    52a1:	b4 ff 	movb	$-1, %ah
    52a3:	ff b0 00 00 00 00 	pushq	(%rax)
    52a9:	0e  <unknown>
    52aa:	10 46 0e 	adcb	%al, 14(%rsi)
    52ad:	18 4a 0f 	sbbb	%cl, 15(%rdx)
    52b0:	0b 77 08 	orl	8(%rdi), %esi
    52b3:	80 00 3f 	addb	$63, (%rax)
    52b6:	1a 3b 	sbbb	(%rbx), %bh
    52b8:	2a 33 	subb	(%rbx), %dh
    52ba:	24 22 	andb	$34, %al
    52bc:	00 00 	addb	%al, (%rax)
    52be:	00 00 	addb	%al, (%rax)
    52c0:	14 00 	adcb	$0, %al
    52c2:	00 00 	addb	%al, (%rax)
    52c4:	44 00 00 	addb	%r8b, (%rax)
    52c7:	00 78 b5 	addb	%bh, -75(%rax)
    52ca:	ff ff  <unknown>
    52cc:	08 00 	orb	%al, (%rax)
    52ce:	00 00 	addb	%al, (%rax)
    52d0:	00 00 	addb	%al, (%rax)
    52d2:	00 00 	addb	%al, (%rax)
    52d4:	00 00 	addb	%al, (%rax)
    52d6:	00 00 	addb	%al, (%rax)
    52d8:	20 00 	andb	%al, (%rax)
    52da:	00 00 	addb	%al, (%rax)
    52dc:	5c 	popq	%rsp
    52dd:	00 00 	addb	%al, (%rax)
    52df:	00 7a b6 	addb	%bh, -74(%rdx)
    52e2:	ff ff  <unknown>
    52e4:	be 0f 00 00 00 	movl	$15, %esi
    52e9:	41 0e  <unknown>
    52eb:	10 86 02 43 0d 06 	adcb	%al, 101532418(%rsi)
    52f1:	48 83 03 03 	addq	$3, (%rbx)
    52f5:	b1 0f 	movb	$15, %cl
    52f7:	0c 07 	orb	$7, %al
    52f9:	08 00 	orb	%al, (%rax)
    52fb:	00 1c 00 	addb	%bl, (%rax,%rax)
    52fe:	00 00 	addb	%al, (%rax)
    5300:	80 00 00 	addb	$0, (%rax)
    5303:	00 14 c6 	addb	%dl, (%rsi,%rax,8)
    5306:	ff ff  <unknown>
    5308:	c7 01 00 00 00 41 	movl	$1090519040, (%rcx)
    530e:	0e  <unknown>
    530f:	10 86 02 43 0d 06 	adcb	%al, 101532418(%rsi)
    5315:	03 c2 	addl	%edx, %eax
    5317:	01 0c 07 	addl	%ecx, (%rdi,%rax)
    531a:	08 00 	orb	%al, (%rax)
    531c:	1c 00 	sbbb	$0, %al
    531e:	00 00 	addb	%al, (%rax)
    5320:	a0 00 00 00 bb c7 ff ff 57 	movabsb	6341068033661861888, %al
    5329:	01 00 	addl	%eax, (%rax)
    532b:	00 00 	addb	%al, (%rax)
    532d:	41 0e  <unknown>
    532f:	10 86 02 43 0d 06 	adcb	%al, 101532418(%rsi)
    5335:	03 52 01 	addl	1(%rdx), %edx
    5338:	0c 07 	orb	$7, %al
    533a:	08 00 	orb	%al, (%rax)
    533c:	1c 00 	sbbb	$0, %al
    533e:	00 00 	addb	%al, (%rax)
    5340:	c0 00 00 	rolb	$0, (%rax)
    5343:	00 f2 	addb	%dh, %dl
    5345:	c8 ff ff 8f 	enter	$-1, $-113
    5349:	01 00 	addl	%eax, (%rax)
    534b:	00 00 	addb	%al, (%rax)
    534d:	41 0e  <unknown>
    534f:	10 86 02 43 0d 06 	adcb	%al, 101532418(%rsi)
    5355:	03 8a 01 0c 07 08 	addl	134679553(%rdx), %ecx
    535b:	00 1c 00 	addb	%bl, (%rax,%rax)
    535e:	00 00 	addb	%al, (%rax)
    5360:	e0 00 	loopne	0
    5362:	00 00 	addb	%al, (%rax)
    5364:	61  <unknown>
    5365:	ca ff ff 	lretl	$-1
    5368:	07  <unknown>
    5369:	0e  <unknown>
    536a:	00 00 	addb	%al, (%rax)
    536c:	00 41 0e 	addb	%al, 14(%rcx)
    536f:	10 86 02 43 0d 06 	adcb	%al, 101532418(%rsi)
    5375:	03 02 	addl	(%rdx), %eax
    5377:	0e  <unknown>
    5378:	0c 07 	orb	$7, %al
    537a:	08 00 	orb	%al, (%rax)
    537c:	1c 00 	sbbb	$0, %al
    537e:	00 00 	addb	%al, (%rax)
    5380:	00 01 	addb	%al, (%rcx)
    5382:	00 00 	addb	%al, (%rax)
    5384:	48 d8 ff 	fdivr	%st(7)
    5387:	ff e7 	jmpq	*%rdi
    5389:	00 00 	addb	%al, (%rax)
    538b:	00 00 	addb	%al, (%rax)
    538d:	41 0e  <unknown>
    538f:	10 86 02 43 0d 06 	adcb	%al, 101532418(%rsi)
    5395:	02 e2 	addb	%dl, %ah
    5397:	0c 07 	orb	$7, %al
    5399:	08 00 	orb	%al, (%rax)
    539b:	00 1c 00 	addb	%bl, (%rax,%rax)
    539e:	00 00 	addb	%al, (%rax)
    53a0:	20 01 	andb	%al, (%rcx)
    53a2:	00 00 	addb	%al, (%rax)
    53a4:	0f d9 ff 	psubusw	%mm7, %mm7
    53a7:	ff 57 01 	callq	*1(%rdi)
    53aa:	00 00 	addb	%al, (%rax)
    53ac:	00 41 0e 	addb	%al, 14(%rcx)
    53af:	10 86 02 43 0d 06 	adcb	%al, 101532418(%rsi)
    53b5:	03 52 01 	addl	1(%rdx), %edx
    53b8:	0c 07 	orb	$7, %al
    53ba:	08 00 	orb	%al, (%rax)
    53bc:	1c 00 	sbbb	$0, %al
    53be:	00 00 	addb	%al, (%rax)
    53c0:	40 01 00 	addl	%eax, (%rax)
    53c3:	00 46 da 	addb	%al, -38(%rsi)
    53c6:	ff ff  <unknown>
    53c8:	bb 00 00 00 00 	movl	$0, %ebx
    53cd:	41 0e  <unknown>
    53cf:	10 86 02 43 0d 06 	adcb	%al, 101532418(%rsi)
    53d5:	02 b6 0c 07 08 00 	addb	526092(%rsi), %dh
    53db:	00 1c 00 	addb	%bl, (%rax,%rax)
    53de:	00 00 	addb	%al, (%rax)
    53e0:	60  <unknown>
    53e1:	01 00 	addl	%eax, (%rax)
    53e3:	00 e1 	addb	%ah, %cl
    53e5:	da ff  <unknown>
    53e7:	ff 77 00 	pushq	(%rdi)
    53ea:	00 00 	addb	%al, (%rax)
    53ec:	00 41 0e 	addb	%al, 14(%rcx)
    53ef:	10 86 02 43 0d 06 	adcb	%al, 101532418(%rsi)
    53f5:	02 72 0c 	addb	12(%rdx), %dh
    53f8:	07  <unknown>
    53f9:	08 00 	orb	%al, (%rax)
    53fb:	00 1c 00 	addb	%bl, (%rax,%rax)
    53fe:	00 00 	addb	%al, (%rax)
    5400:	80 01 00 	addb	$0, (%rcx)
    5403:	00 38 	addb	%bh, (%rax)
    5405:	db ff  <unknown>
    5407:	ff 2f 	ljmpl	*(%rdi)
    5409:	00 00 	addb	%al, (%rax)
    540b:	00 00 	addb	%al, (%rax)
    540d:	41 0e  <unknown>
    540f:	10 86 02 43 0d 06 	adcb	%al, 101532418(%rsi)
    5415:	6a 0c 	pushq	$12
    5417:	07  <unknown>
    5418:	08 00 	orb	%al, (%rax)
    541a:	00 00 	addb	%al, (%rax)
    541c:	1c 00 	sbbb	$0, %al
    541e:	00 00 	addb	%al, (%rax)
    5420:	a0 01 00 00 47 db ff ff c7 	movabsb	-4035225423846572031, %al
    5429:	01 00 	addl	%eax, (%rax)
    542b:	00 00 	addb	%al, (%rax)
    542d:	41 0e  <unknown>
    542f:	10 86 02 43 0d 06 	adcb	%al, 101532418(%rsi)
    5435:	03 c2 	addl	%edx, %eax
    5437:	01 0c 07 	addl	%ecx, (%rdi,%rax)
    543a:	08 00 	orb	%al, (%rax)
    543c:	20 00 	andb	%al, (%rax)
    543e:	00 00 	addb	%al, (%rax)
    5440:	c0 01 00 	rolb	$0, (%rcx)
    5443:	00 ee 	addb	%ch, %dh
    5445:	dc ff 	fdivr	%st(0), %st(7)
    5447:	ff a4 0c 00 00 00 41 	jmpq	*1090519040(%rsp,%rcx)
    544e:	0e  <unknown>
    544f:	10 86 02 43 0d 06 	adcb	%al, 101532418(%rsi)
    5455:	48 83 03 03 	addq	$3, (%rbx)
    5459:	97 	xchgl	%edi, %eax
    545a:	0c 0c 	orb	$12, %al
    545c:	07  <unknown>
    545d:	08 00 	orb	%al, (%rax)
    545f:	00 1c 00 	addb	%bl, (%rax,%rax)
    5462:	00 00 	addb	%al, (%rax)
    5464:	e4 01 	inb	$1, %al
    5466:	00 00 	addb	%al, (%rax)
    5468:	6e 	outsb	(%rsi), %dx
    5469:	e9 ff ff b3 12 	jmp	313786367
    546e:	00 00 	addb	%al, (%rax)
    5470:	00 41 0e 	addb	%al, 14(%rcx)
    5473:	10 86 02 43 0d 06 	adcb	%al, 101532418(%rsi)
    5479:	03 ae 12 0c 07 08 	addl	134679570(%rsi), %ebp
    547f:	00 44 00 00 	addb	%al, (%rax,%rax)
    5483:	00 04 02 	addb	%al, (%rdx,%rax)
    5486:	00 00 	addb	%al, (%rax)
    5488:	08 fc 	orb	%bh, %ah
    548a:	ff ff  <unknown>
    548c:	65 00 00 	addb	%al, %gs:(%rax)
    548f:	00 00 	addb	%al, (%rax)
    5491:	42 0e  <unknown>
    5493:	10 8f 02 42 0e 18 	adcb	%cl, 403587586(%rdi)
    5499:	8e 03 	movw	(%rbx), %es
    549b:	45 0e  <unknown>
    549d:	20 8d 04 42 0e 28 	andb	%cl, 672023044(%rbp)
    54a3:	8c 05 48 0e 30 86 	movw	%es, -2043670968(%rip)
    54a9:	06  <unknown>
    54aa:	48 0e  <unknown>
    54ac:	38 83 07 4d 0e 40 	cmpb	%al, 1074679047(%rbx)
    54b2:	72 0e 	jb	14 <.eh_frame+0x272>
    54b4:	38 41 0e 	cmpb	%al, 14(%rcx)
    54b7:	30 41 0e 	xorb	%al, 14(%rcx)
    54ba:	28 42 0e 	subb	%al, 14(%rdx)
    54bd:	20 42 0e 	andb	%al, 14(%rdx)
    54c0:	18 42 0e 	sbbb	%al, 14(%rdx)
    54c3:	10 42 0e 	adcb	%al, 14(%rdx)
    54c6:	08 00 	orb	%al, (%rax)
    54c8:	10 00 	adcb	%al, (%rax)
    54ca:	00 00 	addb	%al, (%rax)
    54cc:	4c 02 00 	addb	(%rax), %r8b
    54cf:	00 30 	addb	%dh, (%rax)
    54d1:	fc 	cld
    54d2:	ff ff  <unknown>
    54d4:	02 00 	addb	(%rax), %al
    54d6:	00 00 	addb	%al, (%rax)
    54d8:	00 00 	addb	%al, (%rax)
    54da:	00 00 	addb	%al, (%rax)
    54dc:	00 00 	addb	%al, (%rax)
    54de:	00 00 	addb	%al, (%rax)
Disassembly of section .init_array:
.init_array:
  205d70:	50 	pushq	%rax
  205d71:	09 00 	orl	%eax, (%rax)
  205d73:	00 00 	addb	%al, (%rax)
  205d75:	00 00 	addb	%al, (%rax)
  205d77:	00  <unknown>
Disassembly of section .fini_array:
.fini_array:
  205d78:	10 09 	adcb	%cl, (%rcx)
  205d7a:	00 00 	addb	%al, (%rax)
  205d7c:	00 00 	addb	%al, (%rax)
  205d7e:	00 00 	addb	%al, (%rax)
Disassembly of section .dynamic:
.dynamic:
  205d80:	01 00 	addl	%eax, (%rax)
  205d82:	00 00 	addb	%al, (%rax)
  205d84:	00 00 	addb	%al, (%rax)
  205d86:	00 00 	addb	%al, (%rax)
  205d88:	01 00 	addl	%eax, (%rax)
  205d8a:	00 00 	addb	%al, (%rax)
  205d8c:	00 00 	addb	%al, (%rax)
  205d8e:	00 00 	addb	%al, (%rax)
  205d90:	0c 00 	orb	$0, %al
  205d92:	00 00 	addb	%al, (%rax)
  205d94:	00 00 	addb	%al, (%rax)
  205d96:	00 00 	addb	%al, (%rax)
  205d98:	78 07 	js	7 <.dynamic+0x21>
  205d9a:	00 00 	addb	%al, (%rax)
  205d9c:	00 00 	addb	%al, (%rax)
  205d9e:	00 00 	addb	%al, (%rax)
  205da0:	0d 00 00 00 00 	orl	$0, %eax
  205da5:	00 00 	addb	%al, (%rax)
  205da7:	00 04 51 	addb	%al, (%rcx,%rdx,2)
  205daa:	00 00 	addb	%al, (%rax)
  205dac:	00 00 	addb	%al, (%rax)
  205dae:	00 00 	addb	%al, (%rax)
  205db0:	19 00 	sbbl	%eax, (%rax)
  205db2:	00 00 	addb	%al, (%rax)
  205db4:	00 00 	addb	%al, (%rax)
  205db6:	00 00 	addb	%al, (%rax)
  205db8:	70 5d 	jo	93 <.dynamic+0x97>
  205dba:	20 00 	andb	%al, (%rax)
  205dbc:	00 00 	addb	%al, (%rax)
  205dbe:	00 00 	addb	%al, (%rax)
  205dc0:	1b 00 	sbbl	(%rax), %eax
  205dc2:	00 00 	addb	%al, (%rax)
  205dc4:	00 00 	addb	%al, (%rax)
  205dc6:	00 00 	addb	%al, (%rax)
  205dc8:	08 00 	orb	%al, (%rax)
  205dca:	00 00 	addb	%al, (%rax)
  205dcc:	00 00 	addb	%al, (%rax)
  205dce:	00 00 	addb	%al, (%rax)
  205dd0:	1a 00 	sbbb	(%rax), %al
  205dd2:	00 00 	addb	%al, (%rax)
  205dd4:	00 00 	addb	%al, (%rax)
  205dd6:	00 00 	addb	%al, (%rax)
  205dd8:	78 5d 	js	93 <.dynamic+0xb7>
  205dda:	20 00 	andb	%al, (%rax)
  205ddc:	00 00 	addb	%al, (%rax)
  205dde:	00 00 	addb	%al, (%rax)
  205de0:	1c 00 	sbbb	$0, %al
  205de2:	00 00 	addb	%al, (%rax)
  205de4:	00 00 	addb	%al, (%rax)
  205de6:	00 00 	addb	%al, (%rax)
  205de8:	08 00 	orb	%al, (%rax)
  205dea:	00 00 	addb	%al, (%rax)
  205dec:	00 00 	addb	%al, (%rax)
  205dee:	00 00 	addb	%al, (%rax)
  205df0:	f5 	cmc
  205df1:	fe ff  <unknown>
  205df3:	6f 	outsl	(%rsi), %dx
  205df4:	00 00 	addb	%al, (%rax)
  205df6:	00 00 	addb	%al, (%rax)
  205df8:	98 	cwtl
  205df9:	02 00 	addb	(%rax), %al
  205dfb:	00 00 	addb	%al, (%rax)
  205dfd:	00 00 	addb	%al, (%rax)
  205dff:	00 05 00 00 00 00 	addb	%al, (%rip)
  205e05:	00 00 	addb	%al, (%rax)
  205e07:	00 38 	addb	%bh, (%rax)
  205e09:	04 00 	addb	$0, %al
  205e0b:	00 00 	addb	%al, (%rax)
  205e0d:	00 00 	addb	%al, (%rax)
  205e0f:	00 06 	addb	%al, (%rsi)
  205e11:	00 00 	addb	%al, (%rax)
  205e13:	00 00 	addb	%al, (%rax)
  205e15:	00 00 	addb	%al, (%rax)
  205e17:	00 b8 02 00 00 00 	addb	%bh, 2(%rax)
  205e1d:	00 00 	addb	%al, (%rax)
  205e1f:	00 0a 	addb	%cl, (%rdx)
  205e21:	00 00 	addb	%al, (%rax)
  205e23:	00 00 	addb	%al, (%rax)
  205e25:	00 00 	addb	%al, (%rax)
  205e27:	00 e7 	addb	%ah, %bh
  205e29:	00 00 	addb	%al, (%rax)
  205e2b:	00 00 	addb	%al, (%rax)
  205e2d:	00 00 	addb	%al, (%rax)
  205e2f:	00 0b 	addb	%cl, (%rbx)
  205e31:	00 00 	addb	%al, (%rax)
  205e33:	00 00 	addb	%al, (%rax)
  205e35:	00 00 	addb	%al, (%rax)
  205e37:	00 18 	addb	%bl, (%rax)
  205e39:	00 00 	addb	%al, (%rax)
  205e3b:	00 00 	addb	%al, (%rax)
  205e3d:	00 00 	addb	%al, (%rax)
  205e3f:	00 15 00 00 00 00 	addb	%dl, (%rip)
  205e45:	00 00 	addb	%al, (%rax)
  205e47:	00 00 	addb	%al, (%rax)
  205e49:	00 00 	addb	%al, (%rax)
  205e4b:	00 00 	addb	%al, (%rax)
  205e4d:	00 00 	addb	%al, (%rax)
  205e4f:	00 03 	addb	%al, (%rbx)
  205e51:	00 00 	addb	%al, (%rax)
  205e53:	00 00 	addb	%al, (%rax)
  205e55:	00 00 	addb	%al, (%rax)
  205e57:	00 70 5f 	addb	%dh, 95(%rax)
  205e5a:	20 00 	andb	%al, (%rax)
  205e5c:	00 00 	addb	%al, (%rax)
  205e5e:	00 00 	addb	%al, (%rax)
  205e60:	02 00 	addb	(%rax), %al
  205e62:	00 00 	addb	%al, (%rax)
  205e64:	00 00 	addb	%al, (%rax)
  205e66:	00 00 	addb	%al, (%rax)
  205e68:	f0 	lock
  205e69:	00 00 	addb	%al, (%rax)
  205e6b:	00 00 	addb	%al, (%rax)
  205e6d:	00 00 	addb	%al, (%rax)
  205e6f:	00 14 00 	addb	%dl, (%rax,%rax)
  205e72:	00 00 	addb	%al, (%rax)
  205e74:	00 00 	addb	%al, (%rax)
  205e76:	00 00 	addb	%al, (%rax)
  205e78:	07  <unknown>
  205e79:	00 00 	addb	%al, (%rax)
  205e7b:	00 00 	addb	%al, (%rax)
  205e7d:	00 00 	addb	%al, (%rax)
  205e7f:	00 17 	addb	%dl, (%rdi)
  205e81:	00 00 	addb	%al, (%rax)
  205e83:	00 00 	addb	%al, (%rax)
  205e85:	00 00 	addb	%al, (%rax)
  205e87:	00 88 06 00 00 00 	addb	%cl, 6(%rax)
  205e8d:	00 00 	addb	%al, (%rax)
  205e8f:	00 07 	addb	%al, (%rdi)
  205e91:	00 00 	addb	%al, (%rax)
  205e93:	00 00 	addb	%al, (%rax)
  205e95:	00 00 	addb	%al, (%rax)
  205e97:	00 80 05 00 00 00 	addb	%al, 5(%rax)
  205e9d:	00 00 	addb	%al, (%rax)
  205e9f:	00 08 	addb	%cl, (%rax)
  205ea1:	00 00 	addb	%al, (%rax)
  205ea3:	00 00 	addb	%al, (%rax)
  205ea5:	00 00 	addb	%al, (%rax)
  205ea7:	00 08 	addb	%cl, (%rax)
  205ea9:	01 00 	addl	%eax, (%rax)
  205eab:	00 00 	addb	%al, (%rax)
  205ead:	00 00 	addb	%al, (%rax)
  205eaf:	00 09 	addb	%cl, (%rcx)
  205eb1:	00 00 	addb	%al, (%rax)
  205eb3:	00 00 	addb	%al, (%rax)
  205eb5:	00 00 	addb	%al, (%rax)
  205eb7:	00 18 	addb	%bl, (%rax)
  205eb9:	00 00 	addb	%al, (%rax)
  205ebb:	00 00 	addb	%al, (%rax)
  205ebd:	00 00 	addb	%al, (%rax)
  205ebf:	00 1e 	addb	%bl, (%rsi)
  205ec1:	00 00 	addb	%al, (%rax)
  205ec3:	00 00 	addb	%al, (%rax)
  205ec5:	00 00 	addb	%al, (%rax)
  205ec7:	00 08 	addb	%cl, (%rax)
  205ec9:	00 00 	addb	%al, (%rax)
  205ecb:	00 00 	addb	%al, (%rax)
  205ecd:	00 00 	addb	%al, (%rax)
  205ecf:	00 fb 	addb	%bh, %bl
  205ed1:	ff ff  <unknown>
  205ed3:	6f 	outsl	(%rsi), %dx
  205ed4:	00 00 	addb	%al, (%rax)
  205ed6:	00 00 	addb	%al, (%rax)
  205ed8:	01 00 	addl	%eax, (%rax)
  205eda:	00 08 	addb	%cl, (%rax)
  205edc:	00 00 	addb	%al, (%rax)
  205ede:	00 00 	addb	%al, (%rax)
  205ee0:	fe ff  <unknown>
  205ee2:	ff 6f 00 	ljmpl	*(%rdi)
  205ee5:	00 00 	addb	%al, (%rax)
  205ee7:	00 40 05 	addb	%al, 5(%rax)
  205eea:	00 00 	addb	%al, (%rax)
  205eec:	00 00 	addb	%al, (%rax)
  205eee:	00 00 	addb	%al, (%rax)
  205ef0:	ff ff  <unknown>
  205ef2:	ff 6f 00 	ljmpl	*(%rdi)
  205ef5:	00 00 	addb	%al, (%rax)
  205ef7:	00 01 	addb	%al, (%rcx)
  205ef9:	00 00 	addb	%al, (%rax)
  205efb:	00 00 	addb	%al, (%rax)
  205efd:	00 00 	addb	%al, (%rax)
  205eff:	00 f0 	addb	%dh, %al
  205f01:	ff ff  <unknown>
  205f03:	6f 	outsl	(%rsi), %dx
  205f04:	00 00 	addb	%al, (%rax)
  205f06:	00 00 	addb	%al, (%rax)
  205f08:	20 05 00 00 00 00 	andb	%al, (%rip)
  205f0e:	00 00 	addb	%al, (%rax)
  205f10:	f9 	stc
  205f11:	ff ff  <unknown>
  205f13:	6f 	outsl	(%rsi), %dx
  205f14:	00 00 	addb	%al, (%rax)
  205f16:	00 00 	addb	%al, (%rax)
  205f18:	06  <unknown>
  205f19:	00 00 	addb	%al, (%rax)
  205f1b:	00 00 	addb	%al, (%rax)
  205f1d:	00 00 	addb	%al, (%rax)
  205f1f:	00 00 	addb	%al, (%rax)
  205f21:	00 00 	addb	%al, (%rax)
  205f23:	00 00 	addb	%al, (%rax)
  205f25:	00 00 	addb	%al, (%rax)
  205f27:	00 00 	addb	%al, (%rax)
  205f29:	00 00 	addb	%al, (%rax)
  205f2b:	00 00 	addb	%al, (%rax)
  205f2d:	00 00 	addb	%al, (%rax)
  205f2f:	00 00 	addb	%al, (%rax)
  205f31:	00 00 	addb	%al, (%rax)
  205f33:	00 00 	addb	%al, (%rax)
  205f35:	00 00 	addb	%al, (%rax)
  205f37:	00 00 	addb	%al, (%rax)
  205f39:	00 00 	addb	%al, (%rax)
  205f3b:	00 00 	addb	%al, (%rax)
  205f3d:	00 00 	addb	%al, (%rax)
  205f3f:	00 00 	addb	%al, (%rax)
  205f41:	00 00 	addb	%al, (%rax)
  205f43:	00 00 	addb	%al, (%rax)
  205f45:	00 00 	addb	%al, (%rax)
  205f47:	00 00 	addb	%al, (%rax)
  205f49:	00 00 	addb	%al, (%rax)
  205f4b:	00 00 	addb	%al, (%rax)
  205f4d:	00 00 	addb	%al, (%rax)
  205f4f:	00 00 	addb	%al, (%rax)
  205f51:	00 00 	addb	%al, (%rax)
  205f53:	00 00 	addb	%al, (%rax)
  205f55:	00 00 	addb	%al, (%rax)
  205f57:	00 00 	addb	%al, (%rax)
  205f59:	00 00 	addb	%al, (%rax)
  205f5b:	00 00 	addb	%al, (%rax)
  205f5d:	00 00 	addb	%al, (%rax)
  205f5f:	00 00 	addb	%al, (%rax)
  205f61:	00 00 	addb	%al, (%rax)
  205f63:	00 00 	addb	%al, (%rax)
  205f65:	00 00 	addb	%al, (%rax)
  205f67:	00 00 	addb	%al, (%rax)
  205f69:	00 00 	addb	%al, (%rax)
  205f6b:	00 00 	addb	%al, (%rax)
  205f6d:	00 00 	addb	%al, (%rax)
  205f6f:	00  <unknown>
Disassembly of section .got:
.got:
  205f70:	80 5d 20 00 	sbbb	$0, 32(%rbp)
  205f74:	00 00 	addb	%al, (%rax)
  205f76:	00 00 	addb	%al, (%rax)
  205f78:	00 00 	addb	%al, (%rax)
  205f7a:	00 00 	addb	%al, (%rax)
  205f7c:	00 00 	addb	%al, (%rax)
  205f7e:	00 00 	addb	%al, (%rax)
  205f80:	00 00 	addb	%al, (%rax)
  205f82:	00 00 	addb	%al, (%rax)
  205f84:	00 00 	addb	%al, (%rax)
  205f86:	00 00 	addb	%al, (%rax)
  205f88:	a6 	cmpsb	%es:(%rdi), (%rsi)
  205f89:	07  <unknown>
  205f8a:	00 00 	addb	%al, (%rax)
  205f8c:	00 00 	addb	%al, (%rax)
  205f8e:	00 00 	addb	%al, (%rax)
  205f90:	b6 07 	movb	$7, %dh
  205f92:	00 00 	addb	%al, (%rax)
  205f94:	00 00 	addb	%al, (%rax)
  205f96:	00 00 	addb	%al, (%rax)
  205f98:	c6 07 00 	movb	$0, (%rdi)
  205f9b:	00 00 	addb	%al, (%rax)
  205f9d:	00 00 	addb	%al, (%rax)
  205f9f:	00 d6 	addb	%dl, %dh
  205fa1:	07  <unknown>
  205fa2:	00 00 	addb	%al, (%rax)
  205fa4:	00 00 	addb	%al, (%rax)
  205fa6:	00 00 	addb	%al, (%rax)
  205fa8:	e6 07 	outb	%al, $7
  205faa:	00 00 	addb	%al, (%rax)
  205fac:	00 00 	addb	%al, (%rax)
  205fae:	00 00 	addb	%al, (%rax)
  205fb0:	f6 07 00 	testb	$0, (%rdi)
  205fb3:	00 00 	addb	%al, (%rax)
  205fb5:	00 00 	addb	%al, (%rax)
  205fb7:	00 06 	addb	%al, (%rsi)
  205fb9:	08 00 	orb	%al, (%rax)
  205fbb:	00 00 	addb	%al, (%rax)
  205fbd:	00 00 	addb	%al, (%rax)
  205fbf:	00 16 	addb	%dl, (%rsi)
  205fc1:	08 00 	orb	%al, (%rax)
  205fc3:	00 00 	addb	%al, (%rax)
  205fc5:	00 00 	addb	%al, (%rax)
  205fc7:	00 26 	addb	%ah, (%rsi)
  205fc9:	08 00 	orb	%al, (%rax)
  205fcb:	00 00 	addb	%al, (%rax)
  205fcd:	00 00 	addb	%al, (%rax)
  205fcf:	00 36 	addb	%dh, (%rsi)
  205fd1:	08 00 	orb	%al, (%rax)
  205fd3:	00 00 	addb	%al, (%rax)
  205fd5:	00 00 	addb	%al, (%rax)
  205fd7:	00 00 	addb	%al, (%rax)
  205fd9:	00 00 	addb	%al, (%rax)
  205fdb:	00 00 	addb	%al, (%rax)
  205fdd:	00 00 	addb	%al, (%rax)
  205fdf:	00 00 	addb	%al, (%rax)
  205fe1:	00 00 	addb	%al, (%rax)
  205fe3:	00 00 	addb	%al, (%rax)
  205fe5:	00 00 	addb	%al, (%rax)
  205fe7:	00 00 	addb	%al, (%rax)
  205fe9:	00 00 	addb	%al, (%rax)
  205feb:	00 00 	addb	%al, (%rax)
  205fed:	00 00 	addb	%al, (%rax)
  205fef:	00 00 	addb	%al, (%rax)
  205ff1:	00 00 	addb	%al, (%rax)
  205ff3:	00 00 	addb	%al, (%rax)
  205ff5:	00 00 	addb	%al, (%rax)
  205ff7:	00 00 	addb	%al, (%rax)
  205ff9:	00 00 	addb	%al, (%rax)
  205ffb:	00 00 	addb	%al, (%rax)
  205ffd:	00 00 	addb	%al, (%rax)
  205fff:	00  <unknown>
Disassembly of section .data:
.data:
  206000:	00 00 	addb	%al, (%rax)
  206002:	00 00 	addb	%al, (%rax)
  206004:	00 00 	addb	%al, (%rax)
  206006:	00 00 	addb	%al, (%rax)
  206008:	08 60 20 	orb	%ah, 32(%rax)
  20600b:	00 00 	addb	%al, (%rax)
  20600d:	00 00 	addb	%al, (%rax)
  20600f:	00 00 	addb	%al, (%rax)
  206011:	00 00 	addb	%al, (%rax)
  206013:	00 00 	addb	%al, (%rax)
  206015:	00 00 	addb	%al, (%rax)
  206017:	00 00 	addb	%al, (%rax)
  206019:	00 00 	addb	%al, (%rax)
  20601b:	00 00 	addb	%al, (%rax)
  20601d:	00 00 	addb	%al, (%rax)
  20601f:	00 c0 	addb	%al, %al
  206021:	12 00 	adcb	(%rax), %al
  206023:	00 00 	addb	%al, (%rax)
  206025:	4e 00 00 	addb	%r8b, (%rax)
  206028:	00 00 	addb	%al, (%rax)
  20602a:	84 b5 c0 18 00 00 	testb	%dh, 6336(%rbp)
  206030:	00 4e 00 	addb	%cl, (%rsi)
  206033:	00 00 	addb	%al, (%rax)
  206035:	00 84 b5 c0 1c 00 00 	addb	%al, 7360(%rbp,%rsi,4)
  20603c:	00 4e 00 	addb	%cl, (%rsi)
  20603f:	00 00 	addb	%al, (%rax)
  206041:	00 84 b5 c0 20 00 00 	addb	%al, 8384(%rbp,%rsi,4)
  206048:	00 4e 00 	addb	%cl, (%rsi)
  20604b:	00 00 	addb	%al, (%rax)
  20604d:	00 84 b5 c0 24 00 00 	addb	%al, 9408(%rbp,%rsi,4)
  206054:	00 4e 00 	addb	%cl, (%rsi)
  206057:	00 00 	addb	%al, (%rax)
  206059:	00 84 b5 c0 28 00 00 	addb	%al, 10432(%rbp,%rsi,4)
  206060:	00 4e 00 	addb	%cl, (%rsi)
  206063:	00 00 	addb	%al, (%rax)
  206065:	00 84 b5 c0 2c 00 00 	addb	%al, 11456(%rbp,%rsi,4)
  20606c:	00 4e 00 	addb	%cl, (%rsi)
  20606f:	00 00 	addb	%al, (%rax)
  206071:	00 84 b5 4e 00 00 00 	addb	%al, 78(%rbp,%rsi,4)
  206078:	00 01 	addb	%al, (%rcx)
  20607a:	c0 30  <unknown>
  20607c:	00 00 	addb	%al, (%rax)
  20607e:	00 a3 00 00 00 00 	addb	%ah, (%rbx)
  206084:	00 00 	addb	%al, (%rax)
  206086:	00 00 	addb	%al, (%rax)
  206088:	89 00 	movl	%eax, (%rax)
  20608a:	00 00 	addb	%al, (%rax)
  20608c:	00 00 	addb	%al, (%rax)
  20608e:	00 00 	addb	%al, (%rax)
  206090:	00 89 08 00 00 00 	addb	%cl, 8(%rcx)
  206096:	00 00 	addb	%al, (%rax)
  206098:	00 00 	addb	%al, (%rax)
  20609a:	a0 2f fb 60 c0 b0 00 00 00 	movabsb	759141825327, %al
  2060a3:	7e 01 	jle	1 <.data+0xa6>
  2060a5:	00 00 	addb	%al, (%rax)
  2060a7:	00 b5 9c 04 00 00 	addb	%dh, 1180(%rbp)
  2060ad:	00 c0 	addb	%al, %al
  2060af:	b0 00 	movb	$0, %al
  2060b1:	00 00 	addb	%al, (%rax)
  2060b3:	a2 7e 10 00 00 00 34 e1 09 	movabsb	%al, 711907390705897598
  2060bc:	00 00 	addb	%al, (%rax)
  2060be:	00 9c 09 00 00 00 9c 	addb	%bl, -1677721600(%rcx,%rcx)
  2060c5:	4b 00 00 	addb	%al, (%r8)
  2060c8:	00 89 00 00 00 00 	addb	%cl, (%rcx)
  2060ce:	00 00 	addb	%al, (%rax)
  2060d0:	00 00 	addb	%al, (%rax)
  2060d2:	c0 30  <unknown>
  2060d4:	00 00 	addb	%al, (%rax)
  2060d6:	00 a3 00 00 00 00 	addb	%ah, (%rbx)
  2060dc:	00 00 	addb	%al, (%rax)
  2060de:	00 00 	addb	%al, (%rax)
  2060e0:	c0 b0 00 00 00 a2  <unknown>
  2060e6:	9b 	wait
  2060e7:	89 08 	movl	%ecx, (%rax)
  2060e9:	00 00 	addb	%al, (%rax)
  2060eb:	00 00 	addb	%al, (%rax)
  2060ed:	00 00 	addb	%al, (%rax)
  2060ef:	00 a0 2f fb 60 c0 	addb	%ah, -1067386065(%rax)
  2060f5:	b0 00 	movb	$0, %al
  2060f7:	00 00 	addb	%al, (%rax)
  2060f9:	c0 b0 00 00 00 a2  <unknown>
  2060ff:	7e 01 	jle	1 <.data+0x102>
  206101:	00 00 	addb	%al, (%rax)
  206103:	00 49 b5 	addb	%cl, -75(%rcx)
  206106:	9c 	pushfq
  206107:	a7 	cmpsl	%es:(%rdi), (%rsi)
  206108:	ff ff  <unknown>
  20610a:	ff 9c a2 ff ff ff 4e 	lcalll	*1325400063(%rdx,%riz,4)
  206111:	00 00 	addb	%al, (%rax)
  206113:	00 00 	addb	%al, (%rax)
  206115:	01 c0 	addl	%eax, %eax
  206117:	b8 00 00 00 60 	movl	$1610612736, %eax
  20611c:	4e 00 00 	addb	%r8b, (%rax)
  20611f:	00 00 	addb	%al, (%rax)
  206121:	01 c0 	addl	%eax, %eax
  206123:	c0 00 00 	rolb	$0, (%rax)
  206126:	00 60 4e 	addb	%ah, 78(%rax)
  206129:	00 00 	addb	%al, (%rax)
  20612b:	00 00 	addb	%al, (%rax)
  20612d:	01 c0 	addl	%eax, %eax
  20612f:	c8 00 00 00 	enter	$0, $0
  206133:	60  <unknown>
  206134:	4e 00 00 	addb	%r8b, (%rax)
  206137:	00 00 	addb	%al, (%rax)
  206139:	01 c0 	addl	%eax, %eax
  20613b:	d0 00 	rolb	(%rax)
  20613d:	00 00 	addb	%al, (%rax)
  20613f:	60  <unknown>
  206140:	4e 00 00 	addb	%r8b, (%rax)
  206143:	00 00 	addb	%al, (%rax)
  206145:	01 c0 	addl	%eax, %eax
  206147:	d8 00 	fadds	(%rax)
  206149:	00 00 	addb	%al, (%rax)
  20614b:	60  <unknown>
  20614c:	4e 00 00 	addb	%r8b, (%rax)
  20614f:	00 00 	addb	%al, (%rax)
  206151:	01 c0 	addl	%eax, %eax
  206153:	e0 00 	loopne	0
  206155:	00 00 	addb	%al, (%rax)
  206157:	60  <unknown>
  206158:	4e 00 00 	addb	%r8b, (%rax)
  20615b:	00 00 	addb	%al, (%rax)
  20615d:	c0 e8 00 	shrb	$0, %al
  206160:	00 00 	addb	%al, (%rax)
  206162:	05 9c 04 00 00 	addl	$1180, %eax
  206167:	00 4e 40 	addb	%cl, 64(%rsi)
  20616a:	00 00 	addb	%al, (%rax)
  20616c:	00 c0 	addb	%al, %al
  20616e:	e8 00 00 00 e3 	callq	-486539264
  206173:	29 e1 	subl	%esp, %ecx
  206175:	0e  <unknown>
  206176:	00 00 	addb	%al, (%rax)
  206178:	00 9c 04 00 00 00 9c 	addb	%bl, -1677721600(%rsp,%rax)
  20617f:	79 00 	jns	0 <.data+0x181>
  206181:	00 00 	addb	%al, (%rax)
  206183:	4e 01 00 	addq	%r8, (%rax)
  206186:	00 00 	addb	%al, (%rax)
  206188:	c0 d0 00 	rclb	$0, %al
  20618b:	00 00 	addb	%al, (%rax)
  20618d:	ba fd c0 d0 00 	movl	$13680893, %edx
  206192:	00 00 	addb	%al, (%rax)
  206194:	60  <unknown>
  206195:	c0 d0 00 	rclb	$0, %al
  206198:	00 00 	addb	%al, (%rax)
  20619a:	ba 89 01 00 00 	movl	$393, %edx
  20619f:	00 00 	addb	%al, (%rax)
  2061a1:	00 00 	addb	%al, (%rax)
  2061a3:	00 4e 40 	addb	%cl, 64(%rsi)
  2061a6:	00 00 	addb	%al, (%rax)
  2061a8:	00 50 00 	addb	%dl, (%rax)
  2061ab:	00 00 	addb	%al, (%rax)
  2061ad:	00 a3 00 00 00 00 	addb	%ah, (%rbx)
  2061b3:	00 00 	addb	%al, (%rax)
  2061b5:	00 00 	addb	%al, (%rax)
  2061b7:	c0 e8 00 	shrb	$0, %al
  2061ba:	00 00 	addb	%al, (%rax)
  2061bc:	e3 01 	jrcxz	1 <.data+0x1bf>
  2061be:	89 01 	movl	%eax, (%rcx)
  2061c0:	00 00 	addb	%al, (%rax)
  2061c2:	00 00 	addb	%al, (%rax)
  2061c4:	00 00 	addb	%al, (%rax)
  2061c6:	00 a0 2f fb f8 d6 	addb	%ah, -688325841(%rax)
  2061cc:	94 	xchgl	%esp, %eax
  2061cd:	2c 00 	subb	$0, %al
  2061cf:	00 00 	addb	%al, (%rax)
  2061d1:	00 ba 3c e9 96 c0 	addb	%bh, -1063851716(%rdx)
  2061d7:	d0 00 	rolb	(%rax)
  2061d9:	00 00 	addb	%al, (%rax)
  2061db:	60  <unknown>
  2061dc:	c0 e8 00 	shrb	$0, %al
  2061df:	00 00 	addb	%al, (%rax)
  2061e1:	e3 4e 	jrcxz	78 <.data+0x231>
  2061e3:	01 00 	addl	%eax, (%rax)
  2061e5:	00 00 	addb	%al, (%rax)
  2061e7:	b2 c0 	movb	$-64, %dl
  2061e9:	e8 00 00 00 05 	callq	83886080
  2061ee:	9c 	pushfq
  2061ef:	79 ff 	jns	-1 <.data+0x1f0>
  2061f1:	ff ff  <unknown>
  2061f3:	9c 	pushfq
  2061f4:	74 ff 	je	-1 <.data+0x1f5>
  2061f6:	ff ff  <unknown>
  2061f8:	c0 1c 00 00 	rcrb	$0, (%rax,%rax)
  2061fc:	00 4e 20 	addb	%cl, 32(%rsi)
  2061ff:	00 00 	addb	%al, (%rax)
  206201:	00 c0 	addb	%al, %al
  206203:	d0 00 	rolb	(%rax)
  206205:	00 00 	addb	%al, (%rax)
  206207:	ba 3c da 7e ff 	movl	$4286503484, %edx
  20620c:	ff ff  <unknown>
  20620e:	ff 87 b5 c0 20 00 	incl	2146485(%rdi)
  206214:	00 00 	addb	%al, (%rax)
  206216:	c0 d0 00 	rclb	$0, %al
  206219:	00 00 	addb	%al, (%rax)
  20621b:	ba da 7e ff ff 	movl	$4294934234, %edx
  206220:	ff ff  <unknown>
  206222:	87 b5 4e 00 00 00 	xchgl	%esi, 78(%rbp)
  206228:	00 c0 	addb	%al, %al
  20622a:	e8 00 00 00 05 	callq	83886080
  20622f:	9c 	pushfq
  206230:	04 00 	addb	$0, %al
  206232:	00 00 	addb	%al, (%rax)
  206234:	4e 38 00 	cmpb	%r8b, (%rax)
  206237:	00 00 	addb	%al, (%rax)
  206239:	c0 e8 00 	shrb	$0, %al
  20623c:	00 00 	addb	%al, (%rax)
  20623e:	e3 29 	jrcxz	41 <.data+0x269>
  206240:	e1 0e 	loope	14
  206242:	00 00 	addb	%al, (%rax)
  206244:	00 9c 04 00 00 00 9c 	addb	%bl, -1677721600(%rsp,%rax)
  20624b:	79 00 	jns	0 <.data+0x24d>
  20624d:	00 00 	addb	%al, (%rax)
  20624f:	4e 01 00 	addq	%r8, (%rax)
  206252:	00 00 	addb	%al, (%rax)
  206254:	c0 c0 00 	rolb	$0, %al
  206257:	00 00 	addb	%al, (%rax)
  206259:	ba fd c0 c0 00 	movl	$12632317, %edx
  20625e:	00 00 	addb	%al, (%rax)
  206260:	60  <unknown>
  206261:	c0 c0 00 	rolb	$0, %al
  206264:	00 00 	addb	%al, (%rax)
  206266:	ba 89 01 00 00 	movl	$393, %edx
  20626b:	00 00 	addb	%al, (%rax)
  20626d:	00 00 	addb	%al, (%rax)
  20626f:	00 4e 40 	addb	%cl, 64(%rsi)
  206272:	00 00 	addb	%al, (%rax)
  206274:	00 50 01 	addb	%dl, 1(%rax)
  206277:	00 00 	addb	%al, (%rax)
  206279:	00 a3 00 00 00 00 	addb	%ah, (%rbx)
  20627f:	00 00 	addb	%al, (%rax)
  206281:	00 00 	addb	%al, (%rax)
  206283:	c0 e8 00 	shrb	$0, %al
  206286:	00 00 	addb	%al, (%rax)
  206288:	e3 01 	jrcxz	1 <.data+0x28b>
  20628a:	89 01 	movl	%eax, (%rcx)
  20628c:	00 00 	addb	%al, (%rax)
  20628e:	00 00 	addb	%al, (%rax)
  206290:	00 00 	addb	%al, (%rax)
  206292:	00 a0 2f fb f8 d6 	addb	%ah, -688325841(%rax)
  206298:	94 	xchgl	%esp, %eax
  206299:	2c 01 	subb	$1, %al
  20629b:	00 00 	addb	%al, (%rax)
  20629d:	00 ba 3c e9 96 c0 	addb	%bh, -1063851716(%rdx)
  2062a3:	c0 00 00 	rolb	$0, (%rax)
  2062a6:	00 60 c0 	addb	%ah, -64(%rax)
  2062a9:	e8 00 00 00 e3 	callq	-486539264
  2062ae:	4e 01 00 	addq	%r8, (%rax)
  2062b1:	00 00 	addb	%al, (%rax)
  2062b3:	b2 c0 	movb	$-64, %dl
  2062b5:	e8 00 00 00 05 	callq	83886080
  2062ba:	9c 	pushfq
  2062bb:	79 ff 	jns	-1 <.data+0x2bc>
  2062bd:	ff ff  <unknown>
  2062bf:	9c 	pushfq
  2062c0:	74 ff 	je	-1 <.data+0x2c1>
  2062c2:	ff ff  <unknown>
  2062c4:	c0 12 00 	rclb	$0, (%rdx)
  2062c7:	00 00 	addb	%al, (%rax)
  2062c9:	89 ff 	movl	%edi, %edi
  2062cb:	ff ff  <unknown>
  2062cd:	0f 00 00 	sldtw	(%rax)
  2062d0:	00 00 	addb	%al, (%rax)
  2062d2:	4e 1c 00 	sbbb	$0, %al
  2062d5:	00 00 	addb	%al, (%rax)
  2062d7:	c0 c0 00 	rolb	$0, %al
  2062da:	00 00 	addb	%al, (%rax)
  2062dc:	ba 3c e9 da b5 	movl	$3051022652, %edx
  2062e1:	c0 18 00 	rcrb	$0, (%rax)
  2062e4:	00 00 	addb	%al, (%rax)
  2062e6:	89 ff 	movl	%edi, %edi
  2062e8:	ff ff  <unknown>
  2062ea:	0f 00 00 	sldtw	(%rax)
  2062ed:	00 00 	addb	%al, (%rax)
  2062ef:	c0 c0 00 	rolb	$0, %al
  2062f2:	00 00 	addb	%al, (%rax)
  2062f4:	ba e9 da b5 4e 	movl	$1320540905, %edx
  2062f9:	00 00 	addb	%al, (%rax)
  2062fb:	00 00 	addb	%al, (%rax)
  2062fd:	c0 e8 00 	shrb	$0, %al
  206300:	00 00 	addb	%al, (%rax)
  206302:	05 9c 04 00 00 	addl	$1180, %eax
  206307:	00 4e 10 	addb	%cl, 16(%rsi)
  20630a:	00 00 	addb	%al, (%rax)
  20630c:	00 c0 	addb	%al, %al
  20630e:	e8 00 00 00 e3 	callq	-486539264
  206313:	29 e1 	subl	%esp, %ecx
  206315:	0e  <unknown>
  206316:	00 00 	addb	%al, (%rax)
  206318:	00 9c 04 00 00 00 9c 	addb	%bl, -1677721600(%rsp,%rax)
  20631f:	3a 02 	cmpb	(%rdx), %al
  206321:	00 00 	addb	%al, (%rax)
  206323:	4e 00 00 	addb	%r8b, (%rax)
  206326:	00 00 	addb	%al, (%rax)
  206328:	c0 ec 00 	shrb	$0, %ah
  20632b:	00 00 	addb	%al, (%rax)
  20632d:	05 9c 04 00 00 	addl	$1180, %eax
  206332:	00 50 02 	addb	%dl, 2(%rax)
  206335:	00 00 	addb	%al, (%rax)
  206337:	00 a3 00 00 00 00 	addb	%ah, (%rbx)
  20633d:	00 00 	addb	%al, (%rax)
  20633f:	00 00 	addb	%al, (%rax)
  206341:	c0 e8 00 	shrb	$0, %al
  206344:	00 00 	addb	%al, (%rax)
  206346:	e3 01 	jrcxz	1 <.data+0x349>
  206348:	89 01 	movl	%eax, (%rcx)
  20634a:	00 00 	addb	%al, (%rax)
  20634c:	00 00 	addb	%al, (%rax)
  20634e:	00 00 	addb	%al, (%rax)
  206350:	00 a0 2f fb f8 d6 	addb	%ah, -688325841(%rax)
  206356:	c0 ec 00 	shrb	$0, %ah
  206359:	00 00 	addb	%al, (%rax)
  20635b:	e3 29 	jrcxz	41 <.data+0x386>
  20635d:	e1 0e 	loope	14
  20635f:	00 00 	addb	%al, (%rax)
  206361:	00 9c 04 00 00 00 9c 	addb	%bl, -1677721600(%rsp,%rax)
  206368:	76 00 	jbe	0 <.data+0x36a>
  20636a:	00 00 	addb	%al, (%rax)
  20636c:	c0 12 00 	rclb	$0, (%rdx)
  20636f:	00 00 	addb	%al, (%rax)
  206371:	7e ff 	jle	-1 <.data+0x372>
  206373:	ff ff  <unknown>
  206375:	0f 4e 01 	cmovlel	(%rcx), %eax
  206378:	00 00 	addb	%al, (%rax)
  20637a:	00 c0 	addb	%al, %al
  20637c:	12 00 	adcb	(%rax), %al
  20637e:	00 00 	addb	%al, (%rax)
  206380:	a2 09 87 7e 01 00 00 00 4e 	movabsb	%al, 5620492334983448329
  206389:	1b 00 	sbbl	(%rax), %eax
  20638b:	00 00 	addb	%al, (%rax)
  20638d:	c0 12 00 	rclb	$0, (%rdx)
  206390:	00 00 	addb	%al, (%rax)
  206392:	a2 3a 87 4c b5 c0 18 00 00 	movabsb	%al, 27215954478906
  20639b:	00 7e ff 	addb	%bh, -1(%rsi)
  20639e:	ff ff  <unknown>
  2063a0:	0f 4e 01 	cmovlel	(%rcx), %eax
  2063a3:	00 00 	addb	%al, (%rax)
  2063a5:	00 c0 	addb	%al, %al
  2063a7:	18 00 	sbbb	%al, (%rax)
  2063a9:	00 00 	addb	%al, (%rax)
  2063ab:	a2 09 87 7e 01 00 00 00 4e 	movabsb	%al, 5620492334983448329
  2063b4:	1b 00 	sbbl	(%rax), %eax
  2063b6:	00 00 	addb	%al, (%rax)
  2063b8:	c0 18 00 	rcrb	$0, (%rax)
  2063bb:	00 00 	addb	%al, (%rax)
  2063bd:	a2 3a 87 4c b5 c0 ec 00 00 	movabsb	%al, 260312419567418
  2063c6:	00 e3 	addb	%ah, %bl
  2063c8:	4e 01 00 	addq	%r8, (%rax)
  2063cb:	00 00 	addb	%al, (%rax)
  2063cd:	b2 c0 	movb	$-64, %dl
  2063cf:	ec 	inb	%dx, %al
  2063d0:	00 00 	addb	%al, (%rax)
  2063d2:	00 05 9c 5e ff ff 	addb	%al, -41316(%rip)
  2063d8:	ff 9c 59 ff ff ff 4e 	lcalll	*1325400063(%rcx,%rbx,2)
  2063df:	00 00 	addb	%al, (%rax)
  2063e1:	00 00 	addb	%al, (%rax)
  2063e3:	01 c0 	addl	%eax, %eax
  2063e5:	c8 00 00 00 	enter	$0, $0
  2063e9:	60  <unknown>
  2063ea:	4e 1c 00 	sbbb	$0, %al
  2063ed:	00 00 	addb	%al, (%rax)
  2063ef:	c0 12 00 	rclb	$0, (%rdx)
  2063f2:	00 00 	addb	%al, (%rax)
  2063f4:	a2 9b fd c0 18 00 00 00 a2 	movabsb	%al, -6773413839149924965
  2063fd:	9b 	wait
  2063fe:	96 	xchgl	%esi, %eax
  2063ff:	c0 c8 00 	rorb	$0, %al
  206402:	00 00 	addb	%al, (%rax)
  206404:	60  <unknown>
  206405:	4e 00 00 	addb	%r8b, (%rax)
  206408:	00 00 	addb	%al, (%rax)
  20640a:	01 c0 	addl	%eax, %eax
  20640c:	30 00 	xorb	%al, (%rax)
  20640e:	00 00 	addb	%al, (%rax)
  206410:	a3 00 00 00 00 00 00 00 00 	movabsl	%eax, 0
  206419:	c0 e8 00 	shrb	$0, %al
  20641c:	00 00 	addb	%al, (%rax)
  20641e:	e3 01 	jrcxz	1 <.data+0x421>
  206420:	89 08 	movl	%ecx, (%rax)
  206422:	00 00 	addb	%al, (%rax)
  206424:	00 00 	addb	%al, (%rax)
  206426:	00 00 	addb	%al, (%rax)
  206428:	00 a0 2f fb 60 4e 	addb	%ah, 1314978607(%rax)
  20642e:	00 00 	addb	%al, (%rax)
  206430:	00 00 	addb	%al, (%rax)
  206432:	c0 ec 00 	shrb	$0, %ah
  206435:	00 00 	addb	%al, (%rax)
  206437:	05 9c 04 00 00 	addl	$1180, %eax
  20643c:	00 4e 30 	addb	%cl, 48(%rsi)
  20643f:	00 00 	addb	%al, (%rax)
  206441:	00 c0 	addb	%al, %al
  206443:	ec 	inb	%dx, %al
  206444:	00 00 	addb	%al, (%rax)
  206446:	00 e3 	addb	%ah, %bl
  206448:	29 e1 	subl	%esp, %ecx
  20644a:	0e  <unknown>
  20644b:	00 00 	addb	%al, (%rax)
  20644d:	00 9c 04 00 00 00 9c 	addb	%bl, -1677721600(%rsp,%rax)
  206454:	e9 00 00 00 4e 	jmp	1308622848
  206459:	01 00 	addl	%eax, (%rax)
  20645b:	00 00 	addb	%al, (%rax)
  20645d:	c0 30  <unknown>
  20645f:	00 00 	addb	%al, (%rax)
  206461:	00 a3 00 00 00 00 	addb	%ah, (%rbx)
  206467:	00 00 	addb	%al, (%rax)
  206469:	00 00 	addb	%al, (%rax)
  20646b:	c0 e8 00 	shrb	$0, %al
  20646e:	00 00 	addb	%al, (%rax)
  206470:	e3 01 	jrcxz	1 <.data+0x473>
  206472:	89 08 	movl	%ecx, (%rax)
  206474:	00 00 	addb	%al, (%rax)
  206476:	00 00 	addb	%al, (%rax)
  206478:	00 00 	addb	%al, (%rax)
  20647a:	00 a0 2f fb ba fd 	addb	%ah, -38077649(%rax)
  206480:	c0 30  <unknown>
  206482:	00 00 	addb	%al, (%rax)
  206484:	00 a3 00 00 00 00 	addb	%ah, (%rbx)
  20648a:	00 00 	addb	%al, (%rax)
  20648c:	00 00 	addb	%al, (%rax)
  20648e:	c0 e8 00 	shrb	$0, %al
  206491:	00 00 	addb	%al, (%rax)
  206493:	e3 01 	jrcxz	1 <.data+0x496>
  206495:	89 08 	movl	%ecx, (%rax)
  206497:	00 00 	addb	%al, (%rax)
  206499:	00 00 	addb	%al, (%rax)
  20649b:	00 00 	addb	%al, (%rax)
  20649d:	00 a0 2f fb 60 c0 	addb	%ah, -1067386065(%rax)
  2064a3:	30 00 	xorb	%al, (%rax)
  2064a5:	00 00 	addb	%al, (%rax)
  2064a7:	a3 00 00 00 00 00 00 00 00 	movabsl	%eax, 0
  2064b0:	c0 e8 00 	shrb	$0, %al
  2064b3:	00 00 	addb	%al, (%rax)
  2064b5:	e3 01 	jrcxz	1 <.data+0x4b8>
  2064b7:	89 08 	movl	%ecx, (%rax)
  2064b9:	00 00 	addb	%al, (%rax)
  2064bb:	00 00 	addb	%al, (%rax)
  2064bd:	00 00 	addb	%al, (%rax)
  2064bf:	00 a0 2f fb ba 89 	addb	%ah, -1984234705(%rax)
  2064c5:	01 00 	addl	%eax, (%rax)
  2064c7:	00 00 	addb	%al, (%rax)
  2064c9:	00 00 	addb	%al, (%rax)
  2064cb:	00 00 	addb	%al, (%rax)
  2064cd:	4e 38 00 	cmpb	%r8b, (%rax)
  2064d0:	00 00 	addb	%al, (%rax)
  2064d2:	50 	pushq	%rax
  2064d3:	03 00 	addl	(%rax), %eax
  2064d5:	00 00 	addb	%al, (%rax)
  2064d7:	a3 00 00 00 00 00 00 00 00 	movabsl	%eax, 0
  2064e0:	c0 ec 00 	shrb	$0, %ah
  2064e3:	00 00 	addb	%al, (%rax)
  2064e5:	e3 01 	jrcxz	1 <.data+0x4e8>
  2064e7:	89 01 	movl	%eax, (%rcx)
  2064e9:	00 00 	addb	%al, (%rax)
  2064eb:	00 00 	addb	%al, (%rax)
  2064ed:	00 00 	addb	%al, (%rax)
  2064ef:	00 a0 2f fb f8 d6 	addb	%ah, -688325841(%rax)
  2064f5:	94 	xchgl	%esp, %eax
  2064f6:	c0 c8 00 	rorb	$0, %al
  2064f9:	00 00 	addb	%al, (%rax)
  2064fb:	ba 3c e9 96 c0 	movl	$3231115580, %edx
  206500:	30 00 	xorb	%al, (%rax)
  206502:	00 00 	addb	%al, (%rax)
  206504:	a3 00 00 00 00 00 00 00 00 	movabsl	%eax, 0
  20650d:	c0 e8 00 	shrb	$0, %al
  206510:	00 00 	addb	%al, (%rax)
  206512:	e3 01 	jrcxz	1 <.data+0x515>
  206514:	89 08 	movl	%ecx, (%rax)
  206516:	00 00 	addb	%al, (%rax)
  206518:	00 00 	addb	%al, (%rax)
  20651a:	00 00 	addb	%al, (%rax)
  20651c:	00 a0 2f fb 60 c0 	addb	%ah, -1067386065(%rax)
  206522:	ec 	inb	%dx, %al
  206523:	00 00 	addb	%al, (%rax)
  206525:	00 e3 	addb	%ah, %bl
  206527:	4e 01 00 	addq	%r8, (%rax)
  20652a:	00 00 	addb	%al, (%rax)
  20652c:	b2 c0 	movb	$-64, %dl
  20652e:	ec 	inb	%dx, %al
  20652f:	00 00 	addb	%al, (%rax)
  206531:	00 05 9c 09 ff ff 	addb	%al, -63076(%rip)
  206537:	ff 9c 04 ff ff ff c0 	lcalll	*-1056964609(%rsp,%rax)
  20653e:	e8 00 00 00 e3 	callq	-486539264
  206543:	4e 01 00 	addq	%r8, (%rax)
  206546:	00 00 	addb	%al, (%rax)
  206548:	b2 c0 	movb	$-64, %dl
  20654a:	e8 00 00 00 05 	callq	83886080
  20654f:	9c 	pushfq
  206550:	b8 fd ff ff 9c 	movl	$2634022909, %eax
  206555:	b3 fd 	movb	$-3, %bl
  206557:	ff ff  <unknown>
  206559:	4e 00 00 	addb	%r8b, (%rax)
  20655c:	00 00 	addb	%al, (%rax)
  20655e:	c0 e8 00 	shrb	$0, %al
  206561:	00 00 	addb	%al, (%rax)
  206563:	05 9c 04 00 00 	addl	$1180, %eax
  206568:	00 4e 10 	addb	%cl, 16(%rsi)
  20656b:	00 00 	addb	%al, (%rax)
  20656d:	00 c0 	addb	%al, %al
  20656f:	e8 00 00 00 e3 	callq	-486539264
  206574:	29 e1 	subl	%esp, %ecx
  206576:	0e  <unknown>
  206577:	00 00 	addb	%al, (%rax)
  206579:	00 9c 04 00 00 00 9c 	addb	%bl, -1677721600(%rsp,%rax)
  206580:	64 03 00 	addl	%fs:(%rax), %eax
  206583:	00 4e 00 	addb	%cl, (%rsi)
  206586:	00 00 	addb	%al, (%rax)
  206588:	00 01 	addb	%al, (%rcx)
  20658a:	c0 b8 00 00 00 60 4e 	sarb	$78, 1610612736(%rax)
  206591:	00 00 	addb	%al, (%rax)
  206593:	00 00 	addb	%al, (%rax)
  206595:	c0 ec 00 	shrb	$0, %ah
  206598:	00 00 	addb	%al, (%rax)
  20659a:	05 9c 04 00 00 	addl	$1180, %eax
  20659f:	00 4e 30 	addb	%cl, 48(%rsi)
  2065a2:	00 00 	addb	%al, (%rax)
  2065a4:	00 c0 	addb	%al, %al
  2065a6:	ec 	inb	%dx, %al
  2065a7:	00 00 	addb	%al, (%rax)
  2065a9:	00 e3 	addb	%ah, %bl
  2065ab:	29 e1 	subl	%esp, %ecx
  2065ad:	0e  <unknown>
  2065ae:	00 00 	addb	%al, (%rax)
  2065b0:	00 9c 04 00 00 00 9c 	addb	%bl, -1677721600(%rsp,%rax)
  2065b7:	76 00 	jbe	0 <.data+0x5b9>
  2065b9:	00 00 	addb	%al, (%rax)
  2065bb:	4e 01 00 	addq	%r8, (%rax)
  2065be:	00 00 	addb	%al, (%rax)
  2065c0:	c0 b8 00 00 00 ba fd 	sarb	$253, -1174405120(%rax)
  2065c7:	c0 b8 00 00 00 60 c0 	sarb	$192, 1610612736(%rax)
  2065ce:	b8 00 00 00 ba 	movl	$3120562176, %eax
  2065d3:	4e 20 00 	andb	%r8b, (%rax)
  2065d6:	00 00 	addb	%al, (%rax)
  2065d8:	50 	pushq	%rax
  2065d9:	04 00 	addb	$0, %al
  2065db:	00 00 	addb	%al, (%rax)
  2065dd:	a3 00 00 00 00 00 00 00 00 	movabsl	%eax, 0
  2065e6:	c0 ec 00 	shrb	$0, %ah
  2065e9:	00 00 	addb	%al, (%rax)
  2065eb:	e3 01 	jrcxz	1 <.data+0x5ee>
  2065ed:	89 01 	movl	%eax, (%rcx)
  2065ef:	00 00 	addb	%al, (%rax)
  2065f1:	00 00 	addb	%al, (%rax)
  2065f3:	00 00 	addb	%al, (%rax)
  2065f5:	00 a0 2f fb f8 d6 	addb	%ah, -688325841(%rax)
  2065fb:	94 	xchgl	%esp, %eax
  2065fc:	c0 20 00 	shlb	$0, (%rax)
  2065ff:	00 00 	addb	%al, (%rax)
  206601:	a2 3a 7e 01 00 00 00 87 9b 	movabsb	%al, -7239817875974685126
  20660a:	96 	xchgl	%esi, %eax
  20660b:	c0 b8 00 00 00 60 c0 	sarb	$192, 1610612736(%rax)
  206612:	ec 	inb	%dx, %al
  206613:	00 00 	addb	%al, (%rax)
  206615:	00 e3 	addb	%ah, %bl
  206617:	4e 01 00 	addq	%r8, (%rax)
  20661a:	00 00 	addb	%al, (%rax)
  20661c:	b2 c0 	movb	$-64, %dl
  20661e:	ec 	inb	%dx, %al
  20661f:	00 00 	addb	%al, (%rax)
  206621:	00 05 9c 7c ff ff 	addb	%al, -33636(%rip)
  206627:	ff 9c 77 ff ff ff 4e 	lcalll	*1325400063(%rdi,%rsi,2)
  20662e:	64 00 00 	addb	%al, %fs:(%rax)
  206631:	00 2c 02 	addb	%ch, (%rdx,%rax)
  206634:	00 00 	addb	%al, (%rax)
  206636:	00 f8 	addb	%bh, %al
  206638:	d6  <unknown>
  206639:	f1  <unknown>
  20663a:	e1 09 	loope	9
  20663c:	00 00 	addb	%al, (%rax)
  20663e:	00 9c 3e 00 00 00 c0 	addb	%bl, -1073741824(%rsi,%rdi)
  206645:	30 00 	xorb	%al, (%rax)
  206647:	00 00 	addb	%al, (%rax)
  206649:	a3 00 00 00 00 00 00 00 00 	movabsl	%eax, 0
  206652:	4e 0f 00 00 	sldtw	(%rax)
  206656:	00 c0 	addb	%al, %al
  206658:	e8 00 00 00 e3 	callq	-486539264
  20665d:	94 	xchgl	%esp, %eax
  20665e:	01 89 08 00 00 00 	addl	%ecx, 8(%rcx)
  206664:	00 00 	addb	%al, (%rax)
  206666:	00 00 	addb	%al, (%rax)
  206668:	a0 2f fb ba c0 b8 00 00 00 	movabsb	793507461935, %al
  206671:	ba 19 c0 b8 00 	movl	$12107801, %edx
  206676:	00 00 	addb	%al, (%rax)
  206678:	60  <unknown>
  206679:	9c 	pushfq
  20667a:	38 00 	cmpb	%al, (%rax)
  20667c:	00 00 	addb	%al, (%rax)
  20667e:	c0 30  <unknown>
  206680:	00 00 	addb	%al, (%rax)
  206682:	00 a3 00 00 00 00 	addb	%ah, (%rbx)
  206688:	00 00 	addb	%al, (%rax)
  20668a:	00 00 	addb	%al, (%rax)
  20668c:	c0 e8 00 	shrb	$0, %al
  20668f:	00 00 	addb	%al, (%rax)
  206691:	e3 01 	jrcxz	1 <.data+0x694>
  206693:	89 08 	movl	%ecx, (%rax)
  206695:	00 00 	addb	%al, (%rax)
  206697:	00 00 	addb	%al, (%rax)
  206699:	00 00 	addb	%al, (%rax)
  20669b:	00 a0 2f fb ba c0 	addb	%ah, -1061487825(%rax)
  2066a1:	b8 00 00 00 ba 	movl	$3120562176, %eax
  2066a6:	19 c0 	sbbl	%eax, %eax
  2066a8:	b8 00 00 00 60 	movl	$1610612736, %eax
  2066ad:	9c 	pushfq
  2066ae:	04 00 	addb	$0, %al
  2066b0:	00 00 	addb	%al, (%rax)
  2066b2:	4e 00 00 	addb	%r8b, (%rax)
  2066b5:	00 00 	addb	%al, (%rax)
  2066b7:	c0 ec 00 	shrb	$0, %ah
  2066ba:	00 00 	addb	%al, (%rax)
  2066bc:	05 9c 04 00 00 	addl	$1180, %eax
  2066c1:	00 4e 08 	addb	%cl, 8(%rsi)
  2066c4:	00 00 	addb	%al, (%rax)
  2066c6:	00 c0 	addb	%al, %al
  2066c8:	ec 	inb	%dx, %al
  2066c9:	00 00 	addb	%al, (%rax)
  2066cb:	00 e3 	addb	%ah, %bl
  2066cd:	29 e1 	subl	%esp, %ecx
  2066cf:	0e  <unknown>
  2066d0:	00 00 	addb	%al, (%rax)
  2066d2:	00 9c 04 00 00 00 9c 	addb	%bl, -1677721600(%rsp,%rax)
  2066d9:	1c 01 	sbbb	$1, %al
  2066db:	00 00 	addb	%al, (%rax)
  2066dd:	4e 2a 00 	subb	(%rax), %r8b
  2066e0:	00 00 	addb	%al, (%rax)
  2066e2:	4e 06  <unknown>
  2066e4:	00 00 	addb	%al, (%rax)
  2066e6:	00 c0 	addb	%al, %al
  2066e8:	ec 	inb	%dx, %al
  2066e9:	00 00 	addb	%al, (%rax)
  2066eb:	00 e3 	addb	%ah, %bl
  2066ed:	e8 94 4e 06 00 	callq	413332
  2066f2:	00 00 	addb	%al, (%rax)
  2066f4:	c0 ec 00 	shrb	$0, %ah
  2066f7:	00 00 	addb	%al, (%rax)
  2066f9:	e3 e8 	jrcxz	-24 <.data+0x6e3>
  2066fb:	c4 00 00  <unknown>
  2066fe:	00 00 	addb	%al, (%rax)
  206700:	00 84 00 00 13 5b c0 	addb	%al, -1067773184(%rax,%rax)
  206707:	b8 00 00 00 ba 	movl	$3120562176, %eax
  20670c:	e9 3c bf c0 f0 	jmp	-255803588
  206711:	00 00 	addb	%al, (%rax)
  206713:	00 53 4e 	addb	%dl, 78(%rbx)
  206716:	04 00 	addb	$0, %al
  206718:	00 00 	addb	%al, (%rax)
  20671a:	c0 f0  <unknown>
  20671c:	00 00 	addb	%al, (%rax)
  20671e:	00 f8 	addb	%bh, %al
  206720:	d6  <unknown>
  206721:	70 c0 	jo	-64 <.data+0x6e3>
  206723:	f0 	lock
  206724:	00 00 	addb	%al, (%rax)
  206726:	00 f8 	addb	%bh, %al
  206728:	d6  <unknown>
  206729:	4e 01 00 	addq	%r8, (%rax)
  20672c:	00 00 	addb	%al, (%rax)
  20672e:	af 	scasl	%es:(%rdi), %eax
  20672f:	7d 5f 	jge	95 <.data+0x790>
  206731:	c0 f0  <unknown>
  206733:	00 00 	addb	%al, (%rax)
  206735:	00 53 4e 	addb	%dl, 78(%rbx)
  206738:	2b 00 	subl	(%rax), %eax
  20673a:	00 00 	addb	%al, (%rax)
  20673c:	4e 06  <unknown>
  20673e:	00 00 	addb	%al, (%rax)
  206740:	00 c0 	addb	%al, %al
  206742:	ec 	inb	%dx, %al
  206743:	00 00 	addb	%al, (%rax)
  206745:	00 e3 	addb	%ah, %bl
  206747:	e8 94 4e 06 00 	callq	413332
  20674c:	00 00 	addb	%al, (%rax)
  20674e:	c0 ec 00 	shrb	$0, %ah
  206751:	00 00 	addb	%al, (%rax)
  206753:	e3 e8 	jrcxz	-24 <.data+0x73d>
  206755:	c4 00 00  <unknown>
  206758:	00 00 	addb	%al, (%rax)
  20675a:	00 78 00 	addb	%bh, (%rax)
  20675d:	00 13 	addb	%dl, (%rbx)
  20675f:	5b 	popq	%rbx
  206760:	c0 b8 00 00 00 ba e9 	sarb	$233, -1174405120(%rax)
  206767:	3c bf 	cmpb	$-65, %al
  206769:	c0 f1  <unknown>
  20676b:	00 00 	addb	%al, (%rax)
  20676d:	00 53 c0 	addb	%dl, -64(%rbx)
  206770:	24 00 	andb	$0, %al
  206772:	00 00 	addb	%al, (%rax)
  206774:	4e 04 00 	addb	$0, %al
  206777:	00 00 	addb	%al, (%rax)
  206779:	c0 24 00 00 	shlb	$0, (%rax,%rax)
  20677d:	00 a2 09 b5 c0 24 	addb	%ah, 616609033(%rdx)
  206783:	00 00 	addb	%al, (%rax)
  206785:	00 c0 	addb	%al, %al
  206787:	24 00 	andb	$0, %al
  206789:	00 00 	addb	%al, (%rax)
  20678b:	a2 50 05 00 00 00 a3 00 00 	movabsb	%al, 179220395328848
  206794:	00 00 	addb	%al, (%rax)
  206796:	00 00 	addb	%al, (%rax)
  206798:	00 00 	addb	%al, (%rax)
  20679a:	4e 10 00 	adcb	%r8b, (%rax)
  20679d:	00 00 	addb	%al, (%rax)
  20679f:	c0 f0  <unknown>
  2067a1:	00 00 	addb	%al, (%rax)
  2067a3:	00 f8 	addb	%bh, %al
  2067a5:	d6  <unknown>
  2067a6:	e8 c0 f1 00 00 	callq	61888
  2067ab:	00 f8 	addb	%bh, %al
  2067ad:	d6  <unknown>
  2067ae:	b2 01 	movb	$1, %dl
  2067b0:	89 01 	movl	%eax, (%rcx)
  2067b2:	00 00 	addb	%al, (%rax)
  2067b4:	00 00 	addb	%al, (%rax)
  2067b6:	00 00 	addb	%al, (%rax)
  2067b8:	00 a0 2f c0 ec 00 	addb	%ah, 15515695(%rax)
  2067be:	00 00 	addb	%al, (%rax)
  2067c0:	e3 01 	jrcxz	1 <.data+0x7c3>
  2067c2:	89 40 00 	movl	%eax, (%rax)
  2067c5:	00 00 	addb	%al, (%rax)
  2067c7:	00 00 	addb	%al, (%rax)
  2067c9:	00 00 	addb	%al, (%rax)
  2067cb:	a0 2f fb f8 d6 4e 0f 00 00 	movabsb	16831288507183, %al
  2067d4:	00 af 84 4c b5 c0 	addb	%ch, -1061860220(%rdi)
  2067da:	ec 	inb	%dx, %al
  2067db:	00 00 	addb	%al, (%rax)
  2067dd:	00 e3 	addb	%ah, %bl
  2067df:	4e 01 00 	addq	%r8, (%rax)
  2067e2:	00 00 	addb	%al, (%rax)
  2067e4:	b2 c0 	movb	$-64, %dl
  2067e6:	ec 	inb	%dx, %al
  2067e7:	00 00 	addb	%al, (%rax)
  2067e9:	00 05 9c d6 fe ff 	addb	%al, -76132(%rip)
  2067ef:	ff 9c d1 fe ff ff c0 	lcalll	*-1056964610(%rcx,%rdx,8)
  2067f6:	28 00 	subb	%al, (%rax)
  2067f8:	00 00 	addb	%al, (%rax)
  2067fa:	4e 00 00 	addb	%r8b, (%rax)
  2067fd:	00 00 	addb	%al, (%rax)
  2067ff:	84 b5 4e 00 00 00 	testb	%dh, 78(%rbp)
  206805:	00 c0 	addb	%al, %al
  206807:	ec 	inb	%dx, %al
  206808:	00 00 	addb	%al, (%rax)
  20680a:	00 05 9c 04 00 00 	addb	%al, 1180(%rip)
  206810:	00 4e 20 	addb	%cl, 32(%rsi)
  206813:	00 00 	addb	%al, (%rax)
  206815:	00 c0 	addb	%al, %al
  206817:	ec 	inb	%dx, %al
  206818:	00 00 	addb	%al, (%rax)
  20681a:	00 e3 	addb	%ah, %bl
  20681c:	29 e1 	subl	%esp, %ecx
  20681e:	0e  <unknown>
  20681f:	00 00 	addb	%al, (%rax)
  206821:	00 9c 04 00 00 00 9c 	addb	%bl, -1677721600(%rsp,%rax)
  206828:	75 00 	jne	0 <.data+0x82a>
  20682a:	00 00 	addb	%al, (%rax)
  20682c:	c0 28 00 	shrb	$0, (%rax)
  20682f:	00 00 	addb	%al, (%rax)
  206831:	4e 01 00 	addq	%r8, (%rax)
  206834:	00 00 	addb	%al, (%rax)
  206836:	c0 28 00 	shrb	$0, (%rax)
  206839:	00 00 	addb	%al, (%rax)
  20683b:	a2 09 b5 c0 28 00 00 00 c0 	movabsb	%al, -4611686017743670007
  206844:	28 00 	subb	%al, (%rax)
  206846:	00 00 	addb	%al, (%rax)
  206848:	a2 4e 20 00 00 00 50 06 00 	movabsb	%al, 1776810790494286
  206851:	00 00 	addb	%al, (%rax)
  206853:	a3 00 00 00 00 00 00 00 00 	movabsl	%eax, 0
  20685c:	c0 ec 00 	shrb	$0, %ah
  20685f:	00 00 	addb	%al, (%rax)
  206861:	e3 01 	jrcxz	1 <.data+0x864>
  206863:	89 01 	movl	%eax, (%rcx)
  206865:	00 00 	addb	%al, (%rax)
  206867:	00 00 	addb	%al, (%rax)
  206869:	00 00 	addb	%al, (%rax)
  20686b:	00 a0 2f fb f8 d6 	addb	%ah, -688325841(%rax)
  206871:	94 	xchgl	%esp, %eax
  206872:	c0 24 00 00 	shlb	$0, (%rax,%rax)
  206876:	00 a2 3a 7e 01 00 	addb	%ah, 97850(%rdx)
  20687c:	00 00 	addb	%al, (%rax)
  20687e:	87 4c b5 c0 	xchgl	%ecx, -64(%rbp,%rsi,4)
  206882:	ec 	inb	%dx, %al
  206883:	00 00 	addb	%al, (%rax)
  206885:	00 e3 	addb	%ah, %bl
  206887:	4e 01 00 	addq	%r8, (%rax)
  20688a:	00 00 	addb	%al, (%rax)
  20688c:	b2 c0 	movb	$-64, %dl
  20688e:	ec 	inb	%dx, %al
  20688f:	00 00 	addb	%al, (%rax)
  206891:	00 05 9c 7d ff ff 	addb	%al, -33380(%rip)
  206897:	ff 9c 78 ff ff ff c0 	lcalll	*-1056964609(%rax,%rdi,2)
  20689e:	2c 00 	subb	$0, %al
  2068a0:	00 00 	addb	%al, (%rax)
  2068a2:	c0 20 00 	shlb	$0, (%rax)
  2068a5:	00 00 	addb	%al, (%rax)
  2068a7:	a2 b5 c0 20 00 00 00 c0 1c 	movabsb	%al, 2071655828592574645
  2068b0:	00 00 	addb	%al, (%rax)
  2068b2:	00 a2 c0 28 00 00 	addb	%ah, 10432(%rdx)
  2068b8:	00 a2 9d b5 c0 1c 	addb	%ah, 482391453(%rdx)
  2068be:	00 00 	addb	%al, (%rax)
  2068c0:	00 c0 	addb	%al, %al
  2068c2:	2c 00 	subb	$0, %al
  2068c4:	00 00 	addb	%al, (%rax)
  2068c6:	a2 b5 c0 e8 00 00 00 e3 4e 	movabsb	%al, 5684387154686951605
  2068cf:	01 00 	addl	%eax, (%rax)
  2068d1:	00 00 	addb	%al, (%rax)
  2068d3:	b2 c0 	movb	$-64, %dl
  2068d5:	e8 00 00 00 05 	callq	83886080
  2068da:	9c 	pushfq
  2068db:	8e fc  <unknown>
  2068dd:	ff ff  <unknown>
  2068df:	9c 	pushfq
  2068e0:	89 fc 	movl	%edi, %esp
  2068e2:	ff ff  <unknown>
  2068e4:	4e 20 00 	andb	%r8b, (%rax)
  2068e7:	00 00 	addb	%al, (%rax)
  2068e9:	c0 20 00 	shlb	$0, (%rax)
  2068ec:	00 00 	addb	%al, (%rax)
  2068ee:	a2 9b fd c0 1c 00 00 00 a2 	movabsb	%al, -6773413839082816101
  2068f7:	9b 	wait
  2068f8:	96 	xchgl	%esi, %eax
  2068f9:	c0 e0 00 	shlb	$0, %al
  2068fc:	00 00 	addb	%al, (%rax)
  2068fe:	60  <unknown>
  2068ff:	4e 00 00 	addb	%r8b, (%rax)
  206902:	00 00 	addb	%al, (%rax)
  206904:	c0 e8 00 	shrb	$0, %al
  206907:	00 00 	addb	%al, (%rax)
  206909:	05 9c 04 00 00 	addl	$1180, %eax
  20690e:	00 4e 40 	addb	%cl, 64(%rsi)
  206911:	00 00 	addb	%al, (%rax)
  206913:	00 c0 	addb	%al, %al
  206915:	e8 00 00 00 e3 	callq	-486539264
  20691a:	29 e1 	subl	%esp, %ecx
  20691c:	0e  <unknown>
  20691d:	00 00 	addb	%al, (%rax)
  20691f:	00 9c 04 00 00 00 9c 	addb	%bl, -1677721600(%rsp,%rax)
  206926:	79 00 	jns	0 <.data+0x928>
  206928:	00 00 	addb	%al, (%rax)
  20692a:	4e 01 00 	addq	%r8, (%rax)
  20692d:	00 00 	addb	%al, (%rax)
  20692f:	c0 d8 00 	rcrb	$0, %al
  206932:	00 00 	addb	%al, (%rax)
  206934:	ba fd c0 d8 00 	movl	$14205181, %edx
  206939:	00 00 	addb	%al, (%rax)
  20693b:	60  <unknown>
  20693c:	c0 d8 00 	rcrb	$0, %al
  20693f:	00 00 	addb	%al, (%rax)
  206941:	ba 89 01 00 00 	movl	$393, %edx
  206946:	00 00 	addb	%al, (%rax)
  206948:	00 00 	addb	%al, (%rax)
  20694a:	00 4e 40 	addb	%cl, 64(%rsi)
  20694d:	00 00 	addb	%al, (%rax)
  20694f:	00 50 07 	addb	%dl, 7(%rax)
  206952:	00 00 	addb	%al, (%rax)
  206954:	00 a3 00 00 00 00 	addb	%ah, (%rbx)
  20695a:	00 00 	addb	%al, (%rax)
  20695c:	00 00 	addb	%al, (%rax)
  20695e:	c0 e8 00 	shrb	$0, %al
  206961:	00 00 	addb	%al, (%rax)
  206963:	e3 01 	jrcxz	1 <.data+0x966>
  206965:	89 01 	movl	%eax, (%rcx)
  206967:	00 00 	addb	%al, (%rax)
  206969:	00 00 	addb	%al, (%rax)
  20696b:	00 00 	addb	%al, (%rax)
  20696d:	00 a0 2f fb f8 d6 	addb	%ah, -688325841(%rax)
  206973:	94 	xchgl	%esp, %eax
  206974:	c0 e0 00 	shlb	$0, %al
  206977:	00 00 	addb	%al, (%rax)
  206979:	ba 3c e9 96 c0 	movl	$3231115580, %edx
  20697e:	d8 00 	fadds	(%rax)
  206980:	00 00 	addb	%al, (%rax)
  206982:	60  <unknown>
  206983:	c0 e8 00 	shrb	$0, %al
  206986:	00 00 	addb	%al, (%rax)
  206988:	e3 4e 	jrcxz	78 <.data+0x9d8>
  20698a:	01 00 	addl	%eax, (%rax)
  20698c:	00 00 	addb	%al, (%rax)
  20698e:	b2 c0 	movb	$-64, %dl
  206990:	e8 00 00 00 05 	callq	83886080
  206995:	9c 	pushfq
  206996:	79 ff 	jns	-1 <.data+0x997>
  206998:	ff ff  <unknown>
  20699a:	9c 	pushfq
  20699b:	74 ff 	je	-1 <.data+0x99c>
  20699d:	ff ff  <unknown>
  20699f:	c0 d8 00 	rcrb	$0, %al
  2069a2:	00 00 	addb	%al, (%rax)
  2069a4:	ba 3e 00 00 92 	movl	$2449473598, %edx
  2069a9:	54 	pushq	%rsp
  2069aa:	11 b3 b0 9f b7 51 	adcl	%esi, 1370988464(%rbx)
  2069b0:	00 00 	addb	%al, (%rax)
  2069b2:	00 00 	addb	%al, (%rax)
  2069b4:	00 00 	addb	%al, (%rax)
  2069b6:	00 00 	addb	%al, (%rax)
  2069b8:	00 00 	addb	%al, (%rax)
  2069ba:	00 00 	addb	%al, (%rax)
  2069bc:	00 00 	addb	%al, (%rax)
  2069be:	00 00 	addb	%al, (%rax)
  2069c0:	67 10 00 	adcb	%al, (%eax)
  2069c3:	00 00 	addb	%al, (%rax)
  2069c5:	74 bf 	je	-65 <.data+0x986>
  2069c7:	7e 01 	jle	1 <.data+0x9ca>
  2069c9:	c7 43 17 db 2b b8 80 	movl	$2159553499, 23(%rbx)
  2069d0:	67 18 00 	sbbb	%al, (%eax)
  2069d3:	00 00 	addb	%al, (%rax)
  2069d5:	58 	popq	%rax
  2069d6:	00 00 	addb	%al, (%rax)
  2069d8:	00 00 	addb	%al, (%rax)
  2069da:	65 80 67 20 00 	andb	$0, %gs:32(%rdi)
  2069df:	00 00 	addb	%al, (%rax)
  2069e1:	58 	popq	%rax
  2069e2:	00 00 	addb	%al, (%rax)
  2069e4:	00 00 	addb	%al, (%rax)
  2069e6:	b4 8a 	movb	$-118, %ah
  2069e8:	19 04 00 	sbbl	%eax, (%rax,%rax)
  2069eb:	00 00 	addb	%al, (%rax)
  2069ed:	1c 06 	sbbb	$6, %al
  2069ef:	00 00 	addb	%al, (%rax)
  2069f1:	00 00 	addb	%al, (%rax)
  2069f3:	00 00 	addb	%al, (%rax)
  2069f5:	00 67 18 	addb	%ah, 24(%rdi)
  2069f8:	00 00 	addb	%al, (%rax)
  2069fa:	00 b6 8f e5 0e 00 	addb	%dh, 976271(%rsi)
  206a00:	00 00 	addb	%al, (%rax)
  206a02:	19 04 00 	sbbl	%eax, (%rax,%rax)
  206a05:	00 00 	addb	%al, (%rax)
  206a07:	19 2a 	sbbl	%ebp, (%rdx)
  206a09:	01 00 	addl	%eax, (%rax)
  206a0b:	00 67 22 	addb	%ah, 34(%rdi)
  206a0e:	00 00 	addb	%al, (%rax)
  206a10:	00 1c 00 	addb	%bl, (%rax,%rax)
  206a13:	00 00 	addb	%al, (%rax)
  206a15:	00 00 	addb	%al, (%rax)
  206a17:	00 00 	addb	%al, (%rax)
  206a19:	ff 80 67 2c 00 00 	incl	11367(%rax)
  206a1f:	00 12 	addb	%dl, (%rdx)
  206a21:	00 00 	addb	%al, (%rax)
  206a23:	00 00 	addb	%al, (%rax)
  206a25:	69 1c 08 00 00 00 00 	imull	$0, (%rax,%rcx), %ebx
  206a2c:	00 00 	addb	%al, (%rax)
  206a2e:	00 67 18 	addb	%ah, 24(%rdi)
  206a31:	00 00 	addb	%al, (%rax)
  206a33:	00 b6 6e ad f1 b6 	addb	%dh, -1225675410(%rsi)
  206a39:	80 67 38 00 	andb	$0, 56(%rdi)
  206a3d:	00 00 	addb	%al, (%rax)
  206a3f:	67 10 00 	adcb	%al, (%eax)
  206a42:	00 00 	addb	%al, (%rax)
  206a44:	b6 80 	movb	$-128, %dh
  206a46:	ae 	scasb	%es:(%rdi), %al
  206a47:	01 00 	addl	%eax, (%rax)
  206a49:	00 00 	addb	%al, (%rax)
  206a4b:	67 40 00 00 	addb	%al, (%eax)
  206a4f:	00 67 48 	addb	%ah, 72(%rdi)
  206a52:	00 00 	addb	%al, (%rax)
  206a54:	00 b6 80 67 50 00 	addb	%dh, 5269376(%rsi)
  206a5a:	00 00 	addb	%al, (%rax)
  206a5c:	67 40 00 00 	addb	%al, (%eax)
  206a60:	00 b6 80 58 00 00 	addb	%dh, 22656(%rsi)
  206a66:	00 00 	addb	%al, (%rax)
  206a68:	67 58 	popq	%rax
  206a6a:	00 00 	addb	%al, (%rax)
  206a6c:	00 fb 	addb	%bh, %bl
  206a6e:	19 04 00 	sbbl	%eax, (%rax,%rax)
  206a71:	00 00 	addb	%al, (%rax)
  206a73:	67 58 	popq	%rax
  206a75:	00 00 	addb	%al, (%rax)
  206a77:	00 91 58 07 00 00 	addb	%dl, 1880(%rcx)
  206a7d:	00 76 e5 	addb	%dh, -27(%rsi)
  206a80:	0e  <unknown>
  206a81:	00 00 	addb	%al, (%rax)
  206a83:	00 19 	addb	%bl, (%rcx)
  206a85:	04 00 	addb	$0, %al
  206a87:	00 00 	addb	%al, (%rax)
  206a89:	19 74 00 00 	sbbl	%esi, (%rax,%rax)
  206a8d:	00 12 	addb	%dl, (%rdx)
  206a8f:	01 00 	addl	%eax, (%rax)
  206a91:	00 00 	addb	%al, (%rax)
  206a93:	69 1c 01 00 00 00 00 	imull	$0, (%rcx,%rax), %ebx
  206a9a:	00 00 	addb	%al, (%rax)
  206a9c:	00 67 20 	addb	%ah, 32(%rdi)
  206a9f:	00 00 	addb	%al, (%rax)
  206aa1:	00 f9 	addb	%bh, %cl
  206aa3:	52 	pushq	%rdx
  206aa4:	67 58 	popq	%rax
  206aa6:	00 00 	addb	%al, (%rax)
  206aa8:	00 91 72 65 ad f1 	addb	%dl, -240294542(%rcx)
  206aae:	58 	popq	%rax
  206aaf:	38 00 	cmpb	%al, (%rax)
  206ab1:	00 00 	addb	%al, (%rax)
  206ab3:	67 58 	popq	%rax
  206ab5:	00 00 	addb	%al, (%rax)
  206ab7:	00 91 58 08 00 00 	addb	%dl, 2136(%rcx)
  206abd:	00 39 	addb	%bh, (%rcx)
  206abf:	2a 67 22 	subb	34(%rdi), %ah
  206ac2:	00 00 	addb	%al, (%rax)
  206ac4:	00 b6 67 50 00 00 	addb	%dh, 20583(%rsi)
  206aca:	00 b6 66 83 c1 8a 	addb	%dh, -1967029402(%rsi)
  206ad0:	67 22 00 	andb	(%eax), %al
  206ad3:	00 00 	addb	%al, (%rax)
  206ad5:	58 	popq	%rax
  206ad6:	08 00 	orb	%al, (%rax)
  206ad8:	00 00 	addb	%al, (%rax)
  206ada:	67 22 00 	andb	(%eax), %al
  206add:	00 00 	addb	%al, (%rax)
  206adf:	b6 83 	movb	$-125, %dh
  206ae1:	80 58 01 00 	sbbb	$0, 1(%rax)
  206ae5:	00 00 	addb	%al, (%rax)
  206ae7:	67 58 	popq	%rax
  206ae9:	00 00 	addb	%al, (%rax)
  206aeb:	00 91 72 67 58 00 	addb	%dl, 5793650(%rcx)
  206af1:	00 00 	addb	%al, (%rax)
  206af3:	fb 	sti
  206af4:	19 7e ff 	sbbl	%edi, -1(%rsi)
  206af7:	ff ff  <unknown>
  206af9:	19 79 ff 	sbbl	%edi, -1(%rcx)
  206afc:	ff ff  <unknown>
  206afe:	67 18 00 	sbbb	%al, (%eax)
  206b01:	00 00 	addb	%al, (%rax)
  206b03:	1c 01 	sbbb	$1, %al
  206b05:	00 00 	addb	%al, (%rax)
  206b07:	00 00 	addb	%al, (%rax)
  206b09:	00 00 	addb	%al, (%rax)
  206b0b:	00 67 18 	addb	%ah, 24(%rdi)
  206b0e:	00 00 	addb	%al, (%rax)
  206b10:	00 b6 af 80 67 20 	addb	%dh, 543654063(%rsi)
  206b16:	00 00 	addb	%al, (%rax)
  206b18:	00 58 07 	addb	%bl, 7(%rax)
  206b1b:	00 00 	addb	%al, (%rax)
  206b1d:	00 67 20 	addb	%ah, 32(%rdi)
  206b20:	00 00 	addb	%al, (%rax)
  206b22:	00 f9 	addb	%bh, %cl
  206b24:	52 	pushq	%rdx
  206b25:	72 b4 	jb	-76 <.data+0xadb>
  206b27:	8a 19 	movb	(%rcx), %bl
  206b29:	c4 fe ff  <unknown>
  206b2c:	ff 19 	lcalll	*(%rcx)
  206b2e:	bf fe ff ff 67 	movl	$1744830462, %edi
  206b33:	5c 	popq	%rsp
  206b34:	00 00 	addb	%al, (%rax)
  206b36:	00 0f 	addb	%cl, (%rdi)
  206b38:	00 00 	addb	%al, (%rax)
  206b3a:	00 00 	addb	%al, (%rax)
  206b3c:	00 00 	addb	%al, (%rax)
  206b3e:	00 00 	addb	%al, (%rax)
  206b40:	1c 01 	sbbb	$1, %al
  206b42:	00 00 	addb	%al, (%rax)
  206b44:	00 00 	addb	%al, (%rax)
  206b46:	00 00 	addb	%al, (%rax)
  206b48:	00 1c 00 	addb	%bl, (%rax,%rax)
  206b4b:	00 00 	addb	%al, (%rax)
  206b4d:	00 00 	addb	%al, (%rax)
  206b4f:	00 00 	addb	%al, (%rax)
  206b51:	00 ad 90 a7 58 29 	addb	%ch, 693675920(%rbp)
  206b57:	00 00 	addb	%al, (%rax)
  206b59:	00 b4 8a 67 5c 00 00 	addb	%dh, 23655(%rdx,%rcx,4)
  206b60:	00 0f 	addb	%cl, (%rdi)
  206b62:	00 00 	addb	%al, (%rax)
  206b64:	00 00 	addb	%al, (%rax)
  206b66:	00 00 	addb	%al, (%rax)
  206b68:	00 00 	addb	%al, (%rax)
  206b6a:	1c 01 	sbbb	$1, %al
  206b6c:	00 00 	addb	%al, (%rax)
  206b6e:	00 00 	addb	%al, (%rax)
  206b70:	00 00 	addb	%al, (%rax)
  206b72:	00 1c 01 	addb	%bl, (%rcx,%rax)
  206b75:	00 00 	addb	%al, (%rax)
  206b77:	00 00 	addb	%al, (%rax)
  206b79:	00 00 	addb	%al, (%rax)
  206b7b:	00 ad 90 a7 58 5c 	addb	%ch, 1549313936(%rbp)
  206b81:	00 00 	addb	%al, (%rax)
  206b83:	00 b4 8a 67 5c 00 00 	addb	%dh, 23655(%rdx,%rcx,4)
  206b8a:	00 0f 	addb	%cl, (%rdi)
  206b8c:	00 00 	addb	%al, (%rax)
  206b8e:	00 00 	addb	%al, (%rax)
  206b90:	00 00 	addb	%al, (%rax)
  206b92:	00 00 	addb	%al, (%rax)
  206b94:	1c 01 	sbbb	$1, %al
  206b96:	00 00 	addb	%al, (%rax)
  206b98:	00 00 	addb	%al, (%rax)
  206b9a:	00 00 	addb	%al, (%rax)
  206b9c:	00 1c 02 	addb	%bl, (%rdx,%rax)
  206b9f:	00 00 	addb	%al, (%rax)
  206ba1:	00 00 	addb	%al, (%rax)
  206ba3:	00 00 	addb	%al, (%rax)
  206ba5:	00 ad 90 a7 58 66 	addb	%ch, 1717086096(%rbp)
  206bab:	00 00 	addb	%al, (%rax)
  206bad:	00 b4 8a 67 5c 00 00 	addb	%dh, 23655(%rdx,%rcx,4)
  206bb4:	00 0f 	addb	%cl, (%rdi)
  206bb6:	00 00 	addb	%al, (%rax)
  206bb8:	00 00 	addb	%al, (%rax)
  206bba:	00 00 	addb	%al, (%rax)
  206bbc:	00 00 	addb	%al, (%rax)
  206bbe:	1c 01 	sbbb	$1, %al
  206bc0:	00 00 	addb	%al, (%rax)
  206bc2:	00 00 	addb	%al, (%rax)
  206bc4:	00 00 	addb	%al, (%rax)
  206bc6:	00 1c 03 	addb	%bl, (%rbx,%rax)
  206bc9:	00 00 	addb	%al, (%rax)
  206bcb:	00 00 	addb	%al, (%rax)
  206bcd:	00 00 	addb	%al, (%rax)
  206bcf:	00 ad 90 a7 58 5a 	addb	%ch, 1515759504(%rbp)
  206bd5:	00 00 	addb	%al, (%rax)
  206bd7:	00 b4 8a 67 5c 00 00 	addb	%dh, 23655(%rdx,%rcx,4)
  206bde:	00 0f 	addb	%cl, (%rdi)
  206be0:	00 00 	addb	%al, (%rax)
  206be2:	00 00 	addb	%al, (%rax)
  206be4:	00 00 	addb	%al, (%rax)
  206be6:	00 00 	addb	%al, (%rax)
  206be8:	1c 01 	sbbb	$1, %al
  206bea:	00 00 	addb	%al, (%rax)
  206bec:	00 00 	addb	%al, (%rax)
  206bee:	00 00 	addb	%al, (%rax)
  206bf0:	00 1c 04 	addb	%bl, (%rsp,%rax)
  206bf3:	00 00 	addb	%al, (%rax)
  206bf5:	00 00 	addb	%al, (%rax)
  206bf7:	00 00 	addb	%al, (%rax)
  206bf9:	00 ad 90 a7 58 6b 	addb	%ch, 1800972176(%rbp)
  206bff:	00 00 	addb	%al, (%rax)
  206c01:	00 b4 8a 67 5c 00 00 	addb	%dh, 23655(%rdx,%rcx,4)
  206c08:	00 0f 	addb	%cl, (%rdi)
  206c0a:	00 00 	addb	%al, (%rax)
  206c0c:	00 00 	addb	%al, (%rax)
  206c0e:	00 00 	addb	%al, (%rax)
  206c10:	00 00 	addb	%al, (%rax)
  206c12:	1c 01 	sbbb	$1, %al
  206c14:	00 00 	addb	%al, (%rax)
  206c16:	00 00 	addb	%al, (%rax)
  206c18:	00 00 	addb	%al, (%rax)
  206c1a:	00 1c 05 00 00 00 00 	addb	%bl, (,%rax)
  206c21:	00 00 	addb	%al, (%rax)
  206c23:	00 ad 90 a7 58 1e 	addb	%ch, 509126544(%rbp)
  206c29:	00 00 	addb	%al, (%rax)
  206c2b:	00 b4 8a 67 5c 00 00 	addb	%dh, 23655(%rdx,%rcx,4)
  206c32:	00 0f 	addb	%cl, (%rdi)
  206c34:	00 00 	addb	%al, (%rax)
  206c36:	00 00 	addb	%al, (%rax)
  206c38:	00 00 	addb	%al, (%rax)
  206c3a:	00 00 	addb	%al, (%rax)
  206c3c:	1c 01 	sbbb	$1, %al
  206c3e:	00 00 	addb	%al, (%rax)
  206c40:	00 00 	addb	%al, (%rax)
  206c42:	00 00 	addb	%al, (%rax)
  206c44:	00 1c 06 	addb	%bl, (%rsi,%rax)
  206c47:	00 00 	addb	%al, (%rax)
  206c49:	00 00 	addb	%al, (%rax)
  206c4b:	00 00 	addb	%al, (%rax)
  206c4d:	00 ad 90 a7 58 a1 	addb	%ch, -1588025456(%rbp)
  206c53:	00 00 	addb	%al, (%rax)
  206c55:	00 b4 8a 67 5c 00 00 	addb	%dh, 23655(%rdx,%rcx,4)
  206c5c:	00 0f 	addb	%cl, (%rdi)
  206c5e:	00 00 	addb	%al, (%rax)
  206c60:	00 00 	addb	%al, (%rax)
  206c62:	00 00 	addb	%al, (%rax)
  206c64:	00 00 	addb	%al, (%rax)
  206c66:	1c 01 	sbbb	$1, %al
  206c68:	00 00 	addb	%al, (%rax)
  206c6a:	00 00 	addb	%al, (%rax)
  206c6c:	00 00 	addb	%al, (%rax)
  206c6e:	00 1c 07 	addb	%bl, (%rdi,%rax)
  206c71:	00 00 	addb	%al, (%rax)
  206c73:	00 00 	addb	%al, (%rax)
  206c75:	00 00 	addb	%al, (%rax)
  206c77:	00 ad 90 a7 58 8c 	addb	%ch, -1940346992(%rbp)
  206c7d:	00 00 	addb	%al, (%rax)
  206c7f:	00 b4 8a 67 5c 00 00 	addb	%dh, 23655(%rdx,%rcx,4)
  206c86:	00 0f 	addb	%cl, (%rdi)
  206c88:	00 00 	addb	%al, (%rax)
  206c8a:	00 00 	addb	%al, (%rax)
  206c8c:	00 00 	addb	%al, (%rax)
  206c8e:	00 00 	addb	%al, (%rax)
  206c90:	1c 01 	sbbb	$1, %al
  206c92:	00 00 	addb	%al, (%rax)
  206c94:	00 00 	addb	%al, (%rax)
  206c96:	00 00 	addb	%al, (%rax)
  206c98:	00 1c 08 	addb	%bl, (%rax,%rcx)
  206c9b:	00 00 	addb	%al, (%rax)
  206c9d:	00 00 	addb	%al, (%rax)
  206c9f:	00 00 	addb	%al, (%rax)
  206ca1:	00 ad 90 a7 58 5c 	addb	%ch, 1549313936(%rbp)
  206ca7:	00 00 	addb	%al, (%rax)
  206ca9:	00 b4 8a 58 2a 00 00 	addb	%dh, 10840(%rdx,%rcx,4)
  206cb0:	00 67 66 	addb	%ah, 102(%rdi)
  206cb3:	00 00 	addb	%al, (%rax)
  206cb5:	00 fb 	addb	%bh, %bl
  206cb7:	19 04 00 	sbbl	%eax, (%rax,%rax)
  206cba:	00 00 	addb	%al, (%rax)
  206cbc:	67 66 00 00 	addb	%al, (%eax)
  206cc0:	00 91 58 33 00 00 	addb	%dl, 13144(%rcx)
  206cc6:	00 76 e5 	addb	%dh, -27(%rsi)
  206cc9:	0e  <unknown>
  206cca:	00 00 	addb	%al, (%rax)
  206ccc:	00 19 	addb	%bl, (%rcx)
  206cce:	04 00 	addb	$0, %al
  206cd0:	00 00 	addb	%al, (%rax)
  206cd2:	19 61 00 	sbbl	%esp, (%rcx)
  206cd5:	00 00 	addb	%al, (%rax)
  206cd7:	12 01 	adcb	(%rcx), %al
  206cd9:	00 00 	addb	%al, (%rax)
  206cdb:	00 69 1c 	addb	%ch, 28(%rcx)
  206cde:	01 00 	addl	%eax, (%rax)
  206ce0:	00 00 	addb	%al, (%rax)
  206ce2:	00 00 	addb	%al, (%rax)
  206ce4:	00 00 	addb	%al, (%rax)
  206ce6:	67 66 00 00 	addb	%al, (%eax)
  206cea:	00 91 65 ad f1 67 	addb	%dl, 1743891813(%rcx)
  206cf0:	5c 	popq	%rsp
  206cf1:	00 00 	addb	%al, (%rax)
  206cf3:	00 0f 	addb	%cl, (%rdi)
  206cf5:	00 00 	addb	%al, (%rax)
  206cf7:	00 00 	addb	%al, (%rax)
  206cf9:	00 00 	addb	%al, (%rax)
  206cfb:	00 00 	addb	%al, (%rax)
  206cfd:	1c 01 	sbbb	$1, %al
  206cff:	00 00 	addb	%al, (%rax)
  206d01:	00 00 	addb	%al, (%rax)
  206d03:	00 00 	addb	%al, (%rax)
  206d05:	00 67 66 	addb	%ah, 102(%rdi)
  206d08:	00 00 	addb	%al, (%rax)
  206d0a:	00 91 58 2a 00 00 	addb	%dl, 10840(%rcx)
  206d10:	00 2a 	addb	%ch, (%rdx)
  206d12:	65 ad 	lodsl	%gs:(%rsi), %eax
  206d14:	90 	nop
  206d15:	a7 	cmpsl	%es:(%rdi), (%rsi)
  206d16:	f9 	stc
  206d17:	8a 58 01 	movb	1(%rax), %bl
  206d1a:	00 00 	addb	%al, (%rax)
  206d1c:	00 67 66 	addb	%ah, 102(%rdi)
  206d1f:	00 00 	addb	%al, (%rax)
  206d21:	00 91 72 67 66 00 	addb	%dl, 6711154(%rcx)
  206d27:	00 00 	addb	%al, (%rax)
  206d29:	fb 	sti
  206d2a:	19 91 ff ff ff 19 	sbbl	%edx, 436207615(%rcx)
  206d30:	8c ff  <unknown>
  206d32:	ff ff  <unknown>
  206d34:	19 04 00 	sbbl	%eax, (%rax,%rax)
  206d37:	00 00 	addb	%al, (%rax)
  206d39:	42 00 00 	addb	%al, (%rax)
  206d3c:	00 00 	addb	%al, (%rax)
  206d3e:	00 00 	addb	%al, (%rax)
  206d40:	bb 01 00 00 00 	movl	$1, %ebx
  206d45:	8d 08 	leal	(%rax), %ecx
  206d47:	00 00 	addb	%al, (%rax)
  206d49:	00 8d 10 00 00 00 	addb	%cl, 16(%rbp)
  206d4f:	7f 88 	jg	-120 <.data+0xcd9>
  206d51:	45 04 00 	addb	$0, %al
  206d54:	00 00 	addb	%al, (%rax)
  206d56:	c0 00 00 	rolb	$0, (%rax)
  206d59:	00 00 	addb	%al, (%rax)
  206d5b:	00 00 	addb	%al, (%rax)
  206d5d:	00 00 	addb	%al, (%rax)
  206d5f:	8d 08 	leal	(%rax), %ecx
  206d61:	00 00 	addb	%al, (%rax)
  206d63:	00 7f 66 	addb	%bh, 102(%rdi)
  206d66:	7c 09 	jl	9 <.data+0xd71>
  206d68:	00 00 	addb	%al, (%rax)
  206d6a:	00 45 0e 	addb	%al, 14(%rbp)
  206d6d:	00 00 	addb	%al, (%rax)
  206d6f:	00 bb 02 00 00 00 	addb	%bh, 2(%rbx)
  206d75:	45 04 00 	addb	$0, %al
  206d78:	00 00 	addb	%al, (%rax)
  206d7a:	cb 	lretl
  206d7b:	00 00 	addb	%al, (%rax)
  206d7d:	00 00 	addb	%al, (%rax)
  206d7f:	0d 8d 18 00 00 	orl	$6285, %eax
  206d84:	00 38 	addb	%bh, (%rax)
  206d86:	cb 	lretl
  206d87:	05 00 00 00 0d 	addl	$218103808, %eax
  206d8c:	8d 20 	leal	(%rax), %esp
  206d8e:	00 00 	addb	%al, (%rax)
  206d90:	00 38 	addb	%bh, (%rax)
  206d92:	bb 03 00 00 00 	movl	$3, %ebx
  206d97:	8d 30 	leal	(%rax), %esi
  206d99:	00 00 	addb	%al, (%rax)
  206d9b:	00 aa 8d 28 00 00 	addb	%ch, 10381(%rdx)
  206da1:	00 38 	addb	%bh, (%rax)
  206da3:	8d 28 	leal	(%rax), %ebp
  206da5:	00 00 	addb	%al, (%rax)
  206da7:	00 aa 8d 38 00 00 	addb	%ch, 14477(%rdx)
  206dad:	00 38 	addb	%bh, (%rax)
  206daf:	8d 38 	leal	(%rax), %edi
  206db1:	00 00 	addb	%al, (%rax)
  206db3:	00 aa 8d 40 00 00 	addb	%ch, 16525(%rdx)
  206db9:	00 38 	addb	%bh, (%rax)
  206dbb:	bb 04 00 00 00 	movl	$4, %ebx
  206dc0:	8d 4c 00 00 	leal	(%rax,%rax), %ecx
  206dc4:	00 25 8d 48 00 00 	addb	%ah, 18573(%rip)
  206dca:	00 1d 45 04 00 00 	addb	%bl, 1093(%rip)
  206dd0:	00 8d 48 00 00 00 	addb	%cl, 72(%rbp)
  206dd6:	25 72 05 00 00 	andl	$1394, %eax
  206ddb:	00 5f 7c 	addb	%bl, 124(%rdi)
  206dde:	09 00 	orl	%eax, (%rax)
  206de0:	00 00 	addb	%al, (%rax)
  206de2:	45 0e  <unknown>
  206de4:	00 00 	addb	%al, (%rax)
  206de6:	00 bb 02 00 00 00 	addb	%bh, 2(%rbx)
  206dec:	45 04 00 	addb	$0, %al
  206def:	00 00 	addb	%al, (%rax)
  206df1:	8d 38 	leal	(%rax), %edi
  206df3:	00 00 	addb	%al, (%rax)
  206df5:	00 aa 8d 50 00 00 	addb	%ch, 20621(%rdx)
  206dfb:	00 38 	addb	%bh, (%rax)
  206dfd:	bb 05 00 00 00 	movl	$5, %ebx
  206e02:	c0 eb 94 	shrb	$148, %bl
  206e05:	71 09 	jno	9 <.data+0xe10>
  206e07:	85 b2 64 68 97 8d 	testl	%esi, -1919457180(%rdx)
  206e0d:	58 	popq	%rax
  206e0e:	00 00 	addb	%al, (%rax)
  206e10:	00 17 	addb	%dl, (%rdi)
  206e12:	00 00 	addb	%al, (%rax)
  206e14:	00 00 	addb	%al, (%rax)
  206e16:	00 00 	addb	%al, (%rax)
  206e18:	00 00 	addb	%al, (%rax)
  206e1a:	17  <unknown>
  206e1b:	08 00 	orb	%al, (%rax)
  206e1d:	00 00 	addb	%al, (%rax)
  206e1f:	00 00 	addb	%al, (%rax)
  206e21:	00 00 	addb	%al, (%rax)
  206e23:	3b 16 	cmpl	(%rsi), %edx
  206e25:	00 00 	addb	%al, (%rax)
  206e27:	00 00 	addb	%al, (%rax)
  206e29:	00 00 	addb	%al, (%rax)
  206e2b:	00 00 	addb	%al, (%rax)
  206e2d:	09 54 6e c0 	orl	%edx, -64(%rsi,%rbp,2)
  206e31:	0a 85 fe 6b 39 2d 	orb	758737918(%rbp), %al
  206e37:	e7 18 	outl	%eax, $24
  206e39:	97 	xchgl	%edi, %eax
  206e3a:	8d 58 00 	leal	(%rax), %ebx
  206e3d:	00 00 	addb	%al, (%rax)
  206e3f:	17  <unknown>
  206e40:	01 00 	addl	%eax, (%rax)
  206e42:	00 00 	addb	%al, (%rax)
  206e44:	00 00 	addb	%al, (%rax)
  206e46:	00 00 	addb	%al, (%rax)
  206e48:	17  <unknown>
  206e49:	08 00 	orb	%al, (%rax)
  206e4b:	00 00 	addb	%al, (%rax)
  206e4d:	00 00 	addb	%al, (%rax)
  206e4f:	00 00 	addb	%al, (%rax)
  206e51:	3b 16 	cmpl	(%rsi), %edx
  206e53:	00 00 	addb	%al, (%rax)
  206e55:	00 00 	addb	%al, (%rax)
  206e57:	00 00 	addb	%al, (%rax)
  206e59:	00 00 	addb	%al, (%rax)
  206e5b:	09 54 6e 17 	orl	%edx, 23(%rsi,%rbp,2)
  206e5f:	fc 	cld
  206e60:	8f 4b ac  <unknown>
  206e63:	50 	pushq	%rax
  206e64:	de fb 	fdivrp	%st(3)
  206e66:	8d 8d 58 00 00 00 	leal	88(%rbp), %ecx
  206e6c:	17  <unknown>
  206e6d:	02 00 	addb	(%rax), %al
  206e6f:	00 00 	addb	%al, (%rax)
  206e71:	00 00 	addb	%al, (%rax)
  206e73:	00 00 	addb	%al, (%rax)
  206e75:	17  <unknown>
  206e76:	08 00 	orb	%al, (%rax)
  206e78:	00 00 	addb	%al, (%rax)
  206e7a:	00 00 	addb	%al, (%rax)
  206e7c:	00 00 	addb	%al, (%rax)
  206e7e:	3b 16 	cmpl	(%rsi), %edx
  206e80:	00 00 	addb	%al, (%rax)
  206e82:	00 00 	addb	%al, (%rax)
  206e84:	00 00 	addb	%al, (%rax)
  206e86:	00 00 	addb	%al, (%rax)
  206e88:	09 54 6e 17 	orl	%edx, 23(%rsi,%rbp,2)
  206e8c:	d4  <unknown>
  206e8d:	6a 9d 	pushq	$-99
  206e8f:	ea  <unknown>
  206e90:	06  <unknown>
  206e91:	de 03 	fiadds	(%rbx)
  206e93:	e1 8d 	loope	-115
  206e95:	58 	popq	%rax
  206e96:	00 00 	addb	%al, (%rax)
  206e98:	00 17 	addb	%dl, (%rdi)
  206e9a:	03 00 	addl	(%rax), %eax
  206e9c:	00 00 	addb	%al, (%rax)
  206e9e:	00 00 	addb	%al, (%rax)
  206ea0:	00 00 	addb	%al, (%rax)
  206ea2:	17  <unknown>
  206ea3:	08 00 	orb	%al, (%rax)
  206ea5:	00 00 	addb	%al, (%rax)
  206ea7:	00 00 	addb	%al, (%rax)
  206ea9:	00 00 	addb	%al, (%rax)
  206eab:	3b 16 	cmpl	(%rsi), %edx
  206ead:	00 00 	addb	%al, (%rax)
  206eaf:	00 00 	addb	%al, (%rax)
  206eb1:	00 00 	addb	%al, (%rax)
  206eb3:	00 00 	addb	%al, (%rax)
  206eb5:	09 54 6e c0 	orl	%edx, -64(%rsi,%rbp,2)
  206eb9:	12 15 9d af 4f e8 	adcb	-397430883(%rip), %dl
  206ebf:	9e 	sahf
  206ec0:	45 97 	xchgl	%r15d, %eax
  206ec2:	8d 58 00 	leal	(%rax), %ebx
  206ec5:	00 00 	addb	%al, (%rax)
  206ec7:	17  <unknown>
  206ec8:	04 00 	addb	$0, %al
  206eca:	00 00 	addb	%al, (%rax)
  206ecc:	00 00 	addb	%al, (%rax)
  206ece:	00 00 	addb	%al, (%rax)
  206ed0:	17  <unknown>
  206ed1:	08 00 	orb	%al, (%rax)
  206ed3:	00 00 	addb	%al, (%rax)
  206ed5:	00 00 	addb	%al, (%rax)
  206ed7:	00 00 	addb	%al, (%rax)
  206ed9:	3b 16 	cmpl	(%rsi), %edx
  206edb:	00 00 	addb	%al, (%rax)
  206edd:	00 00 	addb	%al, (%rax)
  206edf:	00 00 	addb	%al, (%rax)
  206ee1:	00 00 	addb	%al, (%rax)
  206ee3:	09 54 6e c0 	orl	%edx, -64(%rsi,%rbp,2)
  206ee7:	c4 1d 86  <unknown>
  206eea:	25 dd c2 ad 57 	andl	$1471005405, %eax
  206eef:	97 	xchgl	%edi, %eax
  206ef0:	8d 58 00 	leal	(%rax), %ebx
  206ef3:	00 00 	addb	%al, (%rax)
  206ef5:	17  <unknown>
  206ef6:	05 00 00 00 00 	addl	$0, %eax
  206efb:	00 00 	addb	%al, (%rax)
  206efd:	00 17 	addb	%dl, (%rdi)
  206eff:	08 00 	orb	%al, (%rax)
  206f01:	00 00 	addb	%al, (%rax)
  206f03:	00 00 	addb	%al, (%rax)
  206f05:	00 00 	addb	%al, (%rax)
  206f07:	3b 16 	cmpl	(%rsi), %edx
  206f09:	00 00 	addb	%al, (%rax)
  206f0b:	00 00 	addb	%al, (%rax)
  206f0d:	00 00 	addb	%al, (%rax)
  206f0f:	00 00 	addb	%al, (%rax)
  206f11:	09 54 6e 8d 	orl	%edx, -115(%rsi,%rbp,2)
  206f15:	58 	popq	%rax
  206f16:	00 00 	addb	%al, (%rax)
  206f18:	00 17 	addb	%dl, (%rdi)
  206f1a:	00 00 	addb	%al, (%rax)
  206f1c:	00 00 	addb	%al, (%rax)
  206f1e:	00 00 	addb	%al, (%rax)
  206f20:	00 00 	addb	%al, (%rax)
  206f22:	17  <unknown>
  206f23:	08 00 	orb	%al, (%rax)
  206f25:	00 00 	addb	%al, (%rax)
  206f27:	00 00 	addb	%al, (%rax)
  206f29:	00 00 	addb	%al, (%rax)
  206f2b:	3b 16 	cmpl	(%rsi), %edx
  206f2d:	00 00 	addb	%al, (%rax)
  206f2f:	00 00 	addb	%al, (%rax)
  206f31:	00 00 	addb	%al, (%rax)
  206f33:	00 00 	addb	%al, (%rax)
  206f35:	09 54 8d 88 	orl	%edx, -120(%rbp,%rcx,4)
  206f39:	00 00 	addb	%al, (%rax)
  206f3b:	00 38 	addb	%bh, (%rax)
  206f3d:	8d 98 00 00 00 17 	leal	385875968(%rax), %ebx
  206f43:	00 00 	addb	%al, (%rax)
  206f45:	00 00 	addb	%al, (%rax)
  206f47:	00 00 	addb	%al, (%rax)
  206f49:	00 00 	addb	%al, (%rax)
  206f4b:	17  <unknown>
  206f4c:	01 00 	addl	%eax, (%rax)
  206f4e:	00 00 	addb	%al, (%rax)
  206f50:	00 00 	addb	%al, (%rax)
  206f52:	00 00 	addb	%al, (%rax)
  206f54:	3b 16 	cmpl	(%rsi), %edx
  206f56:	00 00 	addb	%al, (%rax)
  206f58:	00 00 	addb	%al, (%rax)
  206f5a:	00 00 	addb	%al, (%rax)
  206f5c:	00 00 	addb	%al, (%rax)
  206f5e:	09 54 8d 90 	orl	%edx, -112(%rbp,%rcx,4)
  206f62:	00 00 	addb	%al, (%rax)
  206f64:	00 38 	addb	%bh, (%rax)
  206f66:	bb 06 00 00 00 	movl	$6, %ebx
  206f6b:	8d cb  <unknown>
  206f6d:	00 00 	addb	%al, (%rax)
  206f6f:	00 17 	addb	%dl, (%rdi)
  206f71:	00 00 	addb	%al, (%rax)
  206f73:	00 00 	addb	%al, (%rax)
  206f75:	00 00 	addb	%al, (%rax)
  206f77:	00 00 	addb	%al, (%rax)
  206f79:	17  <unknown>
  206f7a:	01 00 	addl	%eax, (%rax)
  206f7c:	00 00 	addb	%al, (%rax)
  206f7e:	00 00 	addb	%al, (%rax)
  206f80:	00 00 	addb	%al, (%rax)
  206f82:	3b 16 	cmpl	(%rsi), %edx
  206f84:	00 00 	addb	%al, (%rax)
  206f86:	00 00 	addb	%al, (%rax)
  206f88:	00 00 	addb	%al, (%rax)
  206f8a:	00 00 	addb	%al, (%rax)
  206f8c:	09 54 72 15 	orl	%edx, 21(%rdx,%rsi,2)
  206f90:	00 00 	addb	%al, (%rax)
  206f92:	00 93 14 8d cb 00 	addb	%dl, 13339924(%rbx)
  206f98:	00 00 	addb	%al, (%rax)
  206f9a:	17  <unknown>
  206f9b:	01 00 	addl	%eax, (%rax)
  206f9d:	00 00 	addb	%al, (%rax)
  206f9f:	00 00 	addb	%al, (%rax)
  206fa1:	00 00 	addb	%al, (%rax)
  206fa3:	17  <unknown>
  206fa4:	01 00 	addl	%eax, (%rax)
  206fa6:	00 00 	addb	%al, (%rax)
  206fa8:	00 00 	addb	%al, (%rax)
  206faa:	00 00 	addb	%al, (%rax)
  206fac:	3b 16 	cmpl	(%rsi), %edx
  206fae:	00 00 	addb	%al, (%rax)
  206fb0:	00 00 	addb	%al, (%rax)
  206fb2:	00 00 	addb	%al, (%rax)
  206fb4:	00 00 	addb	%al, (%rax)
  206fb6:	09 54 72 34 	orl	%edx, 52(%rdx,%rsi,2)
  206fba:	00 00 	addb	%al, (%rax)
  206fbc:	00 93 14 8d cb 00 	addb	%dl, 13339924(%rbx)
  206fc2:	00 00 	addb	%al, (%rax)
  206fc4:	17  <unknown>
  206fc5:	02 00 	addb	(%rax), %al
  206fc7:	00 00 	addb	%al, (%rax)
  206fc9:	00 00 	addb	%al, (%rax)
  206fcb:	00 00 	addb	%al, (%rax)
  206fcd:	17  <unknown>
  206fce:	01 00 	addl	%eax, (%rax)
  206fd0:	00 00 	addb	%al, (%rax)
  206fd2:	00 00 	addb	%al, (%rax)
  206fd4:	00 00 	addb	%al, (%rax)
  206fd6:	3b 16 	cmpl	(%rsi), %edx
  206fd8:	00 00 	addb	%al, (%rax)
  206fda:	00 00 	addb	%al, (%rax)
  206fdc:	00 00 	addb	%al, (%rax)
  206fde:	00 00 	addb	%al, (%rax)
  206fe0:	09 54 72 cb 	orl	%edx, -53(%rdx,%rsi,2)
  206fe4:	00 00 	addb	%al, (%rax)
  206fe6:	00 93 14 8d cb 00 	addb	%dl, 13339924(%rbx)
  206fec:	00 00 	addb	%al, (%rax)
  206fee:	17  <unknown>
  206fef:	03 00 	addl	(%rax), %eax
  206ff1:	00 00 	addb	%al, (%rax)
  206ff3:	00 00 	addb	%al, (%rax)
  206ff5:	00 00 	addb	%al, (%rax)
  206ff7:	17  <unknown>
  206ff8:	01 00 	addl	%eax, (%rax)
  206ffa:	00 00 	addb	%al, (%rax)
  206ffc:	00 00 	addb	%al, (%rax)
  206ffe:	00 00 	addb	%al, (%rax)
  207000:	3b 16 	cmpl	(%rsi), %edx
  207002:	00 00 	addb	%al, (%rax)
  207004:	00 00 	addb	%al, (%rax)
  207006:	00 00 	addb	%al, (%rax)
  207008:	00 00 	addb	%al, (%rax)
  20700a:	09 54 72 e2 	orl	%edx, -30(%rdx,%rsi,2)
  20700e:	00 00 	addb	%al, (%rax)
  207010:	00 93 14 8d cb 00 	addb	%dl, 13339924(%rbx)
  207016:	00 00 	addb	%al, (%rax)
  207018:	17  <unknown>
  207019:	04 00 	addb	$0, %al
  20701b:	00 00 	addb	%al, (%rax)
  20701d:	00 00 	addb	%al, (%rax)
  20701f:	00 00 	addb	%al, (%rax)
  207021:	17  <unknown>
  207022:	01 00 	addl	%eax, (%rax)
  207024:	00 00 	addb	%al, (%rax)
  207026:	00 00 	addb	%al, (%rax)
  207028:	00 00 	addb	%al, (%rax)
  20702a:	3b 16 	cmpl	(%rsi), %edx
  20702c:	00 00 	addb	%al, (%rax)
  20702e:	00 00 	addb	%al, (%rax)
  207030:	00 00 	addb	%al, (%rax)
  207032:	00 00 	addb	%al, (%rax)
  207034:	09 54 72 b4 	orl	%edx, -76(%rdx,%rsi,2)
  207038:	00 00 	addb	%al, (%rax)
  20703a:	00 93 14 8d cb 00 	addb	%dl, 13339924(%rbx)
  207040:	00 00 	addb	%al, (%rax)
  207042:	17  <unknown>
  207043:	05 00 00 00 00 	addl	$0, %eax
  207048:	00 00 	addb	%al, (%rax)
  20704a:	00 17 	addb	%dl, (%rdi)
  20704c:	01 00 	addl	%eax, (%rax)
  20704e:	00 00 	addb	%al, (%rax)
  207050:	00 00 	addb	%al, (%rax)
  207052:	00 00 	addb	%al, (%rax)
  207054:	3b 16 	cmpl	(%rsi), %edx
  207056:	00 00 	addb	%al, (%rax)
  207058:	00 00 	addb	%al, (%rax)
  20705a:	00 00 	addb	%al, (%rax)
  20705c:	00 00 	addb	%al, (%rax)
  20705e:	09 54 72 6b 	orl	%edx, 107(%rdx,%rsi,2)
  207062:	00 00 	addb	%al, (%rax)
  207064:	00 93 14 8d cb 00 	addb	%dl, 13339924(%rbx)
  20706a:	00 00 	addb	%al, (%rax)
  20706c:	17  <unknown>
  20706d:	06  <unknown>
  20706e:	00 00 	addb	%al, (%rax)
  207070:	00 00 	addb	%al, (%rax)
  207072:	00 00 	addb	%al, (%rax)
  207074:	00 17 	addb	%dl, (%rdi)
  207076:	01 00 	addl	%eax, (%rax)
  207078:	00 00 	addb	%al, (%rax)
  20707a:	00 00 	addb	%al, (%rax)
  20707c:	00 00 	addb	%al, (%rax)
  20707e:	3b 16 	cmpl	(%rsi), %edx
  207080:	00 00 	addb	%al, (%rax)
  207082:	00 00 	addb	%al, (%rax)
  207084:	00 00 	addb	%al, (%rax)
  207086:	00 00 	addb	%al, (%rax)
  207088:	09 54 72 dc 	orl	%edx, -36(%rdx,%rsi,2)
  20708c:	00 00 	addb	%al, (%rax)
  20708e:	00 93 14 8d cb 00 	addb	%dl, 13339924(%rbx)
  207094:	00 00 	addb	%al, (%rax)
  207096:	17  <unknown>
  207097:	07  <unknown>
  207098:	00 00 	addb	%al, (%rax)
  20709a:	00 00 	addb	%al, (%rax)
  20709c:	00 00 	addb	%al, (%rax)
  20709e:	00 17 	addb	%dl, (%rdi)
  2070a0:	01 00 	addl	%eax, (%rax)
  2070a2:	00 00 	addb	%al, (%rax)
  2070a4:	00 00 	addb	%al, (%rax)
  2070a6:	00 00 	addb	%al, (%rax)
  2070a8:	3b 16 	cmpl	(%rsi), %edx
  2070aa:	00 00 	addb	%al, (%rax)
  2070ac:	00 00 	addb	%al, (%rax)
  2070ae:	00 00 	addb	%al, (%rax)
  2070b0:	00 00 	addb	%al, (%rax)
  2070b2:	09 54 72 dd 	orl	%edx, -35(%rdx,%rsi,2)
  2070b6:	00 00 	addb	%al, (%rax)
  2070b8:	00 93 14 8d cb 00 	addb	%dl, 13339924(%rbx)
  2070be:	00 00 	addb	%al, (%rax)
  2070c0:	17  <unknown>
  2070c1:	08 00 	orb	%al, (%rax)
  2070c3:	00 00 	addb	%al, (%rax)
  2070c5:	00 00 	addb	%al, (%rax)
  2070c7:	00 00 	addb	%al, (%rax)
  2070c9:	17  <unknown>
  2070ca:	01 00 	addl	%eax, (%rax)
  2070cc:	00 00 	addb	%al, (%rax)
  2070ce:	00 00 	addb	%al, (%rax)
  2070d0:	00 00 	addb	%al, (%rax)
  2070d2:	3b 16 	cmpl	(%rsi), %edx
  2070d4:	00 00 	addb	%al, (%rax)
  2070d6:	00 00 	addb	%al, (%rax)
  2070d8:	00 00 	addb	%al, (%rax)
  2070da:	00 00 	addb	%al, (%rax)
  2070dc:	09 54 72 a9 	orl	%edx, -87(%rdx,%rsi,2)
  2070e0:	00 00 	addb	%al, (%rax)
  2070e2:	00 93 14 8d cb 00 	addb	%dl, 13339924(%rbx)
  2070e8:	00 00 	addb	%al, (%rax)
  2070ea:	17  <unknown>
  2070eb:	09 00 	orl	%eax, (%rax)
  2070ed:	00 00 	addb	%al, (%rax)
  2070ef:	00 00 	addb	%al, (%rax)
  2070f1:	00 00 	addb	%al, (%rax)
  2070f3:	17  <unknown>
  2070f4:	01 00 	addl	%eax, (%rax)
  2070f6:	00 00 	addb	%al, (%rax)
  2070f8:	00 00 	addb	%al, (%rax)
  2070fa:	00 00 	addb	%al, (%rax)
  2070fc:	3b 16 	cmpl	(%rsi), %edx
  2070fe:	00 00 	addb	%al, (%rax)
  207100:	00 00 	addb	%al, (%rax)
  207102:	00 00 	addb	%al, (%rax)
  207104:	00 00 	addb	%al, (%rax)
  207106:	09 54 72 8e 	orl	%edx, -114(%rdx,%rsi,2)
  20710a:	00 00 	addb	%al, (%rax)
  20710c:	00 93 14 8d cb 00 	addb	%dl, 13339924(%rbx)
  207112:	00 00 	addb	%al, (%rax)
  207114:	17  <unknown>
  207115:	0a 00 	orb	(%rax), %al
  207117:	00 00 	addb	%al, (%rax)
  207119:	00 00 	addb	%al, (%rax)
  20711b:	00 00 	addb	%al, (%rax)
  20711d:	17  <unknown>
  20711e:	01 00 	addl	%eax, (%rax)
  207120:	00 00 	addb	%al, (%rax)
  207122:	00 00 	addb	%al, (%rax)
  207124:	00 00 	addb	%al, (%rax)
  207126:	3b 16 	cmpl	(%rsi), %edx
  207128:	00 00 	addb	%al, (%rax)
  20712a:	00 00 	addb	%al, (%rax)
  20712c:	00 00 	addb	%al, (%rax)
  20712e:	00 00 	addb	%al, (%rax)
  207130:	09 54 72 ff 	orl	%edx, -1(%rdx,%rsi,2)
  207134:	00 00 	addb	%al, (%rax)
  207136:	00 93 14 8d cb 00 	addb	%dl, 13339924(%rbx)
  20713c:	00 00 	addb	%al, (%rax)
  20713e:	17  <unknown>
  20713f:	0b 00 	orl	(%rax), %eax
  207141:	00 00 	addb	%al, (%rax)
  207143:	00 00 	addb	%al, (%rax)
  207145:	00 00 	addb	%al, (%rax)
  207147:	17  <unknown>
  207148:	01 00 	addl	%eax, (%rax)
  20714a:	00 00 	addb	%al, (%rax)
  20714c:	00 00 	addb	%al, (%rax)
  20714e:	00 00 	addb	%al, (%rax)
  207150:	3b 16 	cmpl	(%rsi), %edx
  207152:	00 00 	addb	%al, (%rax)
  207154:	00 00 	addb	%al, (%rax)
  207156:	00 00 	addb	%al, (%rax)
  207158:	00 00 	addb	%al, (%rax)
  20715a:	09 54 72 98 	orl	%edx, -104(%rdx,%rsi,2)
  20715e:	00 00 	addb	%al, (%rax)
  207160:	00 93 14 8d cb 00 	addb	%dl, 13339924(%rbx)
  207166:	00 00 	addb	%al, (%rax)
  207168:	17  <unknown>
  207169:	0c 00 	orb	$0, %al
  20716b:	00 00 	addb	%al, (%rax)
  20716d:	00 00 	addb	%al, (%rax)
  20716f:	00 00 	addb	%al, (%rax)
  207171:	17  <unknown>
  207172:	01 00 	addl	%eax, (%rax)
  207174:	00 00 	addb	%al, (%rax)
  207176:	00 00 	addb	%al, (%rax)
  207178:	00 00 	addb	%al, (%rax)
  20717a:	3b 16 	cmpl	(%rsi), %edx
  20717c:	00 00 	addb	%al, (%rax)
  20717e:	00 00 	addb	%al, (%rax)
  207180:	00 00 	addb	%al, (%rax)
  207182:	00 00 	addb	%al, (%rax)
  207184:	09 54 72 9b 	orl	%edx, -101(%rdx,%rsi,2)
  207188:	00 00 	addb	%al, (%rax)
  20718a:	00 93 14 8d cb 00 	addb	%dl, 13339924(%rbx)
  207190:	00 00 	addb	%al, (%rax)
  207192:	17  <unknown>
  207193:	0d 00 00 00 00 	orl	$0, %eax
  207198:	00 00 	addb	%al, (%rax)
  20719a:	00 17 	addb	%dl, (%rdi)
  20719c:	01 00 	addl	%eax, (%rax)
  20719e:	00 00 	addb	%al, (%rax)
  2071a0:	00 00 	addb	%al, (%rax)
  2071a2:	00 00 	addb	%al, (%rax)
  2071a4:	3b 16 	cmpl	(%rsi), %edx
  2071a6:	00 00 	addb	%al, (%rax)
  2071a8:	00 00 	addb	%al, (%rax)
  2071aa:	00 00 	addb	%al, (%rax)
  2071ac:	00 00 	addb	%al, (%rax)
  2071ae:	09 54 72 63 	orl	%edx, 99(%rdx,%rsi,2)
  2071b2:	00 00 	addb	%al, (%rax)
  2071b4:	00 93 14 8d cb 00 	addb	%dl, 13339924(%rbx)
  2071ba:	00 00 	addb	%al, (%rax)
  2071bc:	17  <unknown>
  2071bd:	0e  <unknown>
  2071be:	00 00 	addb	%al, (%rax)
  2071c0:	00 00 	addb	%al, (%rax)
  2071c2:	00 00 	addb	%al, (%rax)
  2071c4:	00 17 	addb	%dl, (%rdi)
  2071c6:	01 00 	addl	%eax, (%rax)
  2071c8:	00 00 	addb	%al, (%rax)
  2071ca:	00 00 	addb	%al, (%rax)
  2071cc:	00 00 	addb	%al, (%rax)
  2071ce:	3b 16 	cmpl	(%rsi), %edx
  2071d0:	00 00 	addb	%al, (%rax)
  2071d2:	00 00 	addb	%al, (%rax)
  2071d4:	00 00 	addb	%al, (%rax)
  2071d6:	00 00 	addb	%al, (%rax)
  2071d8:	09 54 72 f2 	orl	%edx, -14(%rdx,%rsi,2)
  2071dc:	00 00 	addb	%al, (%rax)
  2071de:	00 93 14 8d cb 00 	addb	%dl, 13339924(%rbx)
  2071e4:	00 00 	addb	%al, (%rax)
  2071e6:	17  <unknown>
  2071e7:	0f 00 00 	sldtw	(%rax)
  2071ea:	00 00 	addb	%al, (%rax)
  2071ec:	00 00 	addb	%al, (%rax)
  2071ee:	00 17 	addb	%dl, (%rdi)
  2071f0:	01 00 	addl	%eax, (%rax)
  2071f2:	00 00 	addb	%al, (%rax)
  2071f4:	00 00 	addb	%al, (%rax)
  2071f6:	00 00 	addb	%al, (%rax)
  2071f8:	3b 16 	cmpl	(%rsi), %edx
  2071fa:	00 00 	addb	%al, (%rax)
  2071fc:	00 00 	addb	%al, (%rax)
  2071fe:	00 00 	addb	%al, (%rax)
  207200:	00 00 	addb	%al, (%rax)
  207202:	09 54 72 99 	orl	%edx, -103(%rdx,%rsi,2)
  207206:	00 00 	addb	%al, (%rax)
  207208:	00 93 14 8d cb 00 	addb	%dl, 13339924(%rbx)
  20720e:	00 00 	addb	%al, (%rax)
  207210:	17  <unknown>
  207211:	10 00 	adcb	%al, (%rax)
  207213:	00 00 	addb	%al, (%rax)
  207215:	00 00 	addb	%al, (%rax)
  207217:	00 00 	addb	%al, (%rax)
  207219:	17  <unknown>
  20721a:	01 00 	addl	%eax, (%rax)
  20721c:	00 00 	addb	%al, (%rax)
  20721e:	00 00 	addb	%al, (%rax)
  207220:	00 00 	addb	%al, (%rax)
  207222:	3b 16 	cmpl	(%rsi), %edx
  207224:	00 00 	addb	%al, (%rax)
  207226:	00 00 	addb	%al, (%rax)
  207228:	00 00 	addb	%al, (%rax)
  20722a:	00 00 	addb	%al, (%rax)
  20722c:	09 54 72 b1 	orl	%edx, -79(%rdx,%rsi,2)
  207230:	00 00 	addb	%al, (%rax)
  207232:	00 93 14 8d cb 00 	addb	%dl, 13339924(%rbx)
  207238:	00 00 	addb	%al, (%rax)
  20723a:	17  <unknown>
  20723b:	11 00 	adcl	%eax, (%rax)
  20723d:	00 00 	addb	%al, (%rax)
  20723f:	00 00 	addb	%al, (%rax)
  207241:	00 00 	addb	%al, (%rax)
  207243:	17  <unknown>
  207244:	01 00 	addl	%eax, (%rax)
  207246:	00 00 	addb	%al, (%rax)
  207248:	00 00 	addb	%al, (%rax)
  20724a:	00 00 	addb	%al, (%rax)
  20724c:	3b 16 	cmpl	(%rsi), %edx
  20724e:	00 00 	addb	%al, (%rax)
  207250:	00 00 	addb	%al, (%rax)
  207252:	00 00 	addb	%al, (%rax)
  207254:	00 00 	addb	%al, (%rax)
  207256:	09 54 72 62 	orl	%edx, 98(%rdx,%rsi,2)
  20725a:	00 00 	addb	%al, (%rax)
  20725c:	00 93 14 8d cb 00 	addb	%dl, 13339924(%rbx)
  207262:	00 00 	addb	%al, (%rax)
  207264:	17  <unknown>
  207265:	12 00 	adcb	(%rax), %al
  207267:	00 00 	addb	%al, (%rax)
  207269:	00 00 	addb	%al, (%rax)
  20726b:	00 00 	addb	%al, (%rax)
  20726d:	17  <unknown>
  20726e:	01 00 	addl	%eax, (%rax)
  207270:	00 00 	addb	%al, (%rax)
  207272:	00 00 	addb	%al, (%rax)
  207274:	00 00 	addb	%al, (%rax)
  207276:	3b 16 	cmpl	(%rsi), %edx
  207278:	00 00 	addb	%al, (%rax)
  20727a:	00 00 	addb	%al, (%rax)
  20727c:	00 00 	addb	%al, (%rax)
  20727e:	00 00 	addb	%al, (%rax)
  207280:	09 54 72 f2 	orl	%edx, -14(%rdx,%rsi,2)
  207284:	00 00 	addb	%al, (%rax)
  207286:	00 93 14 8d cb 00 	addb	%dl, 13339924(%rbx)
  20728c:	00 00 	addb	%al, (%rax)
  20728e:	17  <unknown>
  20728f:	13 00 	adcl	(%rax), %eax
  207291:	00 00 	addb	%al, (%rax)
  207293:	00 00 	addb	%al, (%rax)
  207295:	00 00 	addb	%al, (%rax)
  207297:	17  <unknown>
  207298:	01 00 	addl	%eax, (%rax)
  20729a:	00 00 	addb	%al, (%rax)
  20729c:	00 00 	addb	%al, (%rax)
  20729e:	00 00 	addb	%al, (%rax)
  2072a0:	3b 16 	cmpl	(%rsi), %edx
  2072a2:	00 00 	addb	%al, (%rax)
  2072a4:	00 00 	addb	%al, (%rax)
  2072a6:	00 00 	addb	%al, (%rax)
  2072a8:	00 00 	addb	%al, (%rax)
  2072aa:	09 54 72 e3 	orl	%edx, -29(%rdx,%rsi,2)
  2072ae:	00 00 	addb	%al, (%rax)
  2072b0:	00 93 14 8d cb 00 	addb	%dl, 13339924(%rbx)
  2072b6:	00 00 	addb	%al, (%rax)
  2072b8:	17  <unknown>
  2072b9:	14 00 	adcb	$0, %al
  2072bb:	00 00 	addb	%al, (%rax)
  2072bd:	00 00 	addb	%al, (%rax)
  2072bf:	00 00 	addb	%al, (%rax)
  2072c1:	17  <unknown>
  2072c2:	01 00 	addl	%eax, (%rax)
  2072c4:	00 00 	addb	%al, (%rax)
  2072c6:	00 00 	addb	%al, (%rax)
  2072c8:	00 00 	addb	%al, (%rax)
  2072ca:	3b 16 	cmpl	(%rsi), %edx
  2072cc:	00 00 	addb	%al, (%rax)
  2072ce:	00 00 	addb	%al, (%rax)
  2072d0:	00 00 	addb	%al, (%rax)
  2072d2:	00 00 	addb	%al, (%rax)
  2072d4:	09 54 72 ed 	orl	%edx, -19(%rdx,%rsi,2)
  2072d8:	00 00 	addb	%al, (%rax)
  2072da:	00 93 14 8d cb 00 	addb	%dl, 13339924(%rbx)
  2072e0:	00 00 	addb	%al, (%rax)
  2072e2:	17  <unknown>
  2072e3:	15 00 00 00 00 	adcl	$0, %eax
  2072e8:	00 00 	addb	%al, (%rax)
  2072ea:	00 17 	addb	%dl, (%rdi)
  2072ec:	01 00 	addl	%eax, (%rax)
  2072ee:	00 00 	addb	%al, (%rax)
  2072f0:	00 00 	addb	%al, (%rax)
  2072f2:	00 00 	addb	%al, (%rax)
  2072f4:	3b 16 	cmpl	(%rsi), %edx
  2072f6:	00 00 	addb	%al, (%rax)
  2072f8:	00 00 	addb	%al, (%rax)
  2072fa:	00 00 	addb	%al, (%rax)
  2072fc:	00 00 	addb	%al, (%rax)
  2072fe:	09 54 72 45 	orl	%edx, 69(%rdx,%rsi,2)
  207302:	00 00 	addb	%al, (%rax)
  207304:	00 93 14 8d cb 00 	addb	%dl, 13339924(%rbx)
  20730a:	00 00 	addb	%al, (%rax)
  20730c:	17  <unknown>
  20730d:	16  <unknown>
  20730e:	00 00 	addb	%al, (%rax)
  207310:	00 00 	addb	%al, (%rax)
  207312:	00 00 	addb	%al, (%rax)
  207314:	00 17 	addb	%dl, (%rdi)
  207316:	01 00 	addl	%eax, (%rax)
  207318:	00 00 	addb	%al, (%rax)
  20731a:	00 00 	addb	%al, (%rax)
  20731c:	00 00 	addb	%al, (%rax)
  20731e:	3b 16 	cmpl	(%rsi), %edx
  207320:	00 00 	addb	%al, (%rax)
  207322:	00 00 	addb	%al, (%rax)
  207324:	00 00 	addb	%al, (%rax)
  207326:	00 00 	addb	%al, (%rax)
  207328:	09 54 72 19 	orl	%edx, 25(%rdx,%rsi,2)
  20732c:	00 00 	addb	%al, (%rax)
  20732e:	00 93 14 8d cb 00 	addb	%dl, 13339924(%rbx)
  207334:	00 00 	addb	%al, (%rax)
  207336:	17  <unknown>
  207337:	17  <unknown>
  207338:	00 00 	addb	%al, (%rax)
  20733a:	00 00 	addb	%al, (%rax)
  20733c:	00 00 	addb	%al, (%rax)
  20733e:	00 17 	addb	%dl, (%rdi)
  207340:	01 00 	addl	%eax, (%rax)
  207342:	00 00 	addb	%al, (%rax)
  207344:	00 00 	addb	%al, (%rax)
  207346:	00 00 	addb	%al, (%rax)
  207348:	3b 16 	cmpl	(%rsi), %edx
  20734a:	00 00 	addb	%al, (%rax)
  20734c:	00 00 	addb	%al, (%rax)
  20734e:	00 00 	addb	%al, (%rax)
  207350:	00 00 	addb	%al, (%rax)
  207352:	09 54 72 90 	orl	%edx, -112(%rdx,%rsi,2)
  207356:	00 00 	addb	%al, (%rax)
  207358:	00 93 14 8d cb 00 	addb	%dl, 13339924(%rbx)
  20735e:	00 00 	addb	%al, (%rax)
  207360:	17  <unknown>
  207361:	18 00 	sbbb	%al, (%rax)
  207363:	00 00 	addb	%al, (%rax)
  207365:	00 00 	addb	%al, (%rax)
  207367:	00 00 	addb	%al, (%rax)
  207369:	17  <unknown>
  20736a:	01 00 	addl	%eax, (%rax)
  20736c:	00 00 	addb	%al, (%rax)
  20736e:	00 00 	addb	%al, (%rax)
  207370:	00 00 	addb	%al, (%rax)
  207372:	3b 16 	cmpl	(%rsi), %edx
  207374:	00 00 	addb	%al, (%rax)
  207376:	00 00 	addb	%al, (%rax)
  207378:	00 00 	addb	%al, (%rax)
  20737a:	00 00 	addb	%al, (%rax)
  20737c:	09 54 72 21 	orl	%edx, 33(%rdx,%rsi,2)
  207380:	00 00 	addb	%al, (%rax)
  207382:	00 93 14 8d cb 00 	addb	%dl, 13339924(%rbx)
  207388:	00 00 	addb	%al, (%rax)
  20738a:	17  <unknown>
  20738b:	19 00 	sbbl	%eax, (%rax)
  20738d:	00 00 	addb	%al, (%rax)
  20738f:	00 00 	addb	%al, (%rax)
  207391:	00 00 	addb	%al, (%rax)
  207393:	17  <unknown>
  207394:	01 00 	addl	%eax, (%rax)
  207396:	00 00 	addb	%al, (%rax)
  207398:	00 00 	addb	%al, (%rax)
  20739a:	00 00 	addb	%al, (%rax)
  20739c:	3b 16 	cmpl	(%rsi), %edx
  20739e:	00 00 	addb	%al, (%rax)
  2073a0:	00 00 	addb	%al, (%rax)
  2073a2:	00 00 	addb	%al, (%rax)
  2073a4:	00 00 	addb	%al, (%rax)
  2073a6:	09 54 72 36 	orl	%edx, 54(%rdx,%rsi,2)
  2073aa:	00 00 	addb	%al, (%rax)
  2073ac:	00 93 14 8d cb 00 	addb	%dl, 13339924(%rbx)
  2073b2:	00 00 	addb	%al, (%rax)
  2073b4:	17  <unknown>
  2073b5:	1a 00 	sbbb	(%rax), %al
  2073b7:	00 00 	addb	%al, (%rax)
  2073b9:	00 00 	addb	%al, (%rax)
  2073bb:	00 00 	addb	%al, (%rax)
  2073bd:	17  <unknown>
  2073be:	01 00 	addl	%eax, (%rax)
  2073c0:	00 00 	addb	%al, (%rax)
  2073c2:	00 00 	addb	%al, (%rax)
  2073c4:	00 00 	addb	%al, (%rax)
  2073c6:	3b 16 	cmpl	(%rsi), %edx
  2073c8:	00 00 	addb	%al, (%rax)
  2073ca:	00 00 	addb	%al, (%rax)
  2073cc:	00 00 	addb	%al, (%rax)
  2073ce:	00 00 	addb	%al, (%rax)
  2073d0:	09 54 72 57 	orl	%edx, 87(%rdx,%rsi,2)
  2073d4:	00 00 	addb	%al, (%rax)
  2073d6:	00 93 14 8d cb 00 	addb	%dl, 13339924(%rbx)
  2073dc:	00 00 	addb	%al, (%rax)
  2073de:	17  <unknown>
  2073df:	1b 00 	sbbl	(%rax), %eax
  2073e1:	00 00 	addb	%al, (%rax)
  2073e3:	00 00 	addb	%al, (%rax)
  2073e5:	00 00 	addb	%al, (%rax)
  2073e7:	17  <unknown>
  2073e8:	01 00 	addl	%eax, (%rax)
  2073ea:	00 00 	addb	%al, (%rax)
  2073ec:	00 00 	addb	%al, (%rax)
  2073ee:	00 00 	addb	%al, (%rax)
  2073f0:	3b 16 	cmpl	(%rsi), %edx
  2073f2:	00 00 	addb	%al, (%rax)
  2073f4:	00 00 	addb	%al, (%rax)
  2073f6:	00 00 	addb	%al, (%rax)
  2073f8:	00 00 	addb	%al, (%rax)
  2073fa:	09 54 72 92 	orl	%edx, -110(%rdx,%rsi,2)
  2073fe:	00 00 	addb	%al, (%rax)
  207400:	00 93 14 8d cb 00 	addb	%dl, 13339924(%rbx)
  207406:	00 00 	addb	%al, (%rax)
  207408:	17  <unknown>
  207409:	1c 00 	sbbb	$0, %al
  20740b:	00 00 	addb	%al, (%rax)
  20740d:	00 00 	addb	%al, (%rax)
  20740f:	00 00 	addb	%al, (%rax)
  207411:	17  <unknown>
  207412:	01 00 	addl	%eax, (%rax)
  207414:	00 00 	addb	%al, (%rax)
  207416:	00 00 	addb	%al, (%rax)
  207418:	00 00 	addb	%al, (%rax)
  20741a:	3b 16 	cmpl	(%rsi), %edx
  20741c:	00 00 	addb	%al, (%rax)
  20741e:	00 00 	addb	%al, (%rax)
  207420:	00 00 	addb	%al, (%rax)
  207422:	00 00 	addb	%al, (%rax)
  207424:	09 54 72 38 	orl	%edx, 56(%rdx,%rsi,2)
  207428:	00 00 	addb	%al, (%rax)
  20742a:	00 93 14 8d cb 00 	addb	%dl, 13339924(%rbx)
  207430:	00 00 	addb	%al, (%rax)
  207432:	17  <unknown>
  207433:	1d 00 00 00 00 	sbbl	$0, %eax
  207438:	00 00 	addb	%al, (%rax)
  20743a:	00 17 	addb	%dl, (%rdi)
  20743c:	01 00 	addl	%eax, (%rax)
  20743e:	00 00 	addb	%al, (%rax)
  207440:	00 00 	addb	%al, (%rax)
  207442:	00 00 	addb	%al, (%rax)
  207444:	3b 16 	cmpl	(%rsi), %edx
  207446:	00 00 	addb	%al, (%rax)
  207448:	00 00 	addb	%al, (%rax)
  20744a:	00 00 	addb	%al, (%rax)
  20744c:	00 00 	addb	%al, (%rax)
  20744e:	09 54 72 75 	orl	%edx, 117(%rdx,%rsi,2)
  207452:	00 00 	addb	%al, (%rax)
  207454:	00 93 14 8d cb 00 	addb	%dl, 13339924(%rbx)
  20745a:	00 00 	addb	%al, (%rax)
  20745c:	17  <unknown>
  20745d:	1e  <unknown>
  20745e:	00 00 	addb	%al, (%rax)
  207460:	00 00 	addb	%al, (%rax)
  207462:	00 00 	addb	%al, (%rax)
  207464:	00 17 	addb	%dl, (%rdi)
  207466:	01 00 	addl	%eax, (%rax)
  207468:	00 00 	addb	%al, (%rax)
  20746a:	00 00 	addb	%al, (%rax)
  20746c:	00 00 	addb	%al, (%rax)
  20746e:	3b 16 	cmpl	(%rsi), %edx
  207470:	00 00 	addb	%al, (%rax)
  207472:	00 00 	addb	%al, (%rax)
  207474:	00 00 	addb	%al, (%rax)
  207476:	00 00 	addb	%al, (%rax)
  207478:	09 54 72 41 	orl	%edx, 65(%rdx,%rsi,2)
  20747c:	00 00 	addb	%al, (%rax)
  20747e:	00 93 14 8d cb 00 	addb	%dl, 13339924(%rbx)
  207484:	00 00 	addb	%al, (%rax)
  207486:	17  <unknown>
  207487:	1f  <unknown>
  207488:	00 00 	addb	%al, (%rax)
  20748a:	00 00 	addb	%al, (%rax)
  20748c:	00 00 	addb	%al, (%rax)
  20748e:	00 17 	addb	%dl, (%rdi)
  207490:	01 00 	addl	%eax, (%rax)
  207492:	00 00 	addb	%al, (%rax)
  207494:	00 00 	addb	%al, (%rax)
  207496:	00 00 	addb	%al, (%rax)
  207498:	3b 16 	cmpl	(%rsi), %edx
  20749a:	00 00 	addb	%al, (%rax)
  20749c:	00 00 	addb	%al, (%rax)
  20749e:	00 00 	addb	%al, (%rax)
  2074a0:	00 00 	addb	%al, (%rax)
  2074a2:	09 54 72 e9 	orl	%edx, -23(%rdx,%rsi,2)
  2074a6:	00 00 	addb	%al, (%rax)
  2074a8:	00 93 14 8d cb 00 	addb	%dl, 13339924(%rbx)
  2074ae:	00 00 	addb	%al, (%rax)
  2074b0:	17  <unknown>
  2074b1:	20 00 	andb	%al, (%rax)
  2074b3:	00 00 	addb	%al, (%rax)
  2074b5:	00 00 	addb	%al, (%rax)
  2074b7:	00 00 	addb	%al, (%rax)
  2074b9:	17  <unknown>
  2074ba:	01 00 	addl	%eax, (%rax)
  2074bc:	00 00 	addb	%al, (%rax)
  2074be:	00 00 	addb	%al, (%rax)
  2074c0:	00 00 	addb	%al, (%rax)
  2074c2:	3b 16 	cmpl	(%rsi), %edx
  2074c4:	00 00 	addb	%al, (%rax)
  2074c6:	00 00 	addb	%al, (%rax)
  2074c8:	00 00 	addb	%al, (%rax)
  2074ca:	00 00 	addb	%al, (%rax)
  2074cc:	09 54 72 c6 	orl	%edx, -58(%rdx,%rsi,2)
  2074d0:	00 00 	addb	%al, (%rax)
  2074d2:	00 93 14 8d cb 00 	addb	%dl, 13339924(%rbx)
  2074d8:	00 00 	addb	%al, (%rax)
  2074da:	17  <unknown>
  2074db:	21 00 	andl	%eax, (%rax)
  2074dd:	00 00 	addb	%al, (%rax)
  2074df:	00 00 	addb	%al, (%rax)
  2074e1:	00 00 	addb	%al, (%rax)
  2074e3:	17  <unknown>
  2074e4:	01 00 	addl	%eax, (%rax)
  2074e6:	00 00 	addb	%al, (%rax)
  2074e8:	00 00 	addb	%al, (%rax)
  2074ea:	00 00 	addb	%al, (%rax)
  2074ec:	3b 16 	cmpl	(%rsi), %edx
  2074ee:	00 00 	addb	%al, (%rax)
  2074f0:	00 00 	addb	%al, (%rax)
  2074f2:	00 00 	addb	%al, (%rax)
  2074f4:	00 00 	addb	%al, (%rax)
  2074f6:	09 54 72 45 	orl	%edx, 69(%rdx,%rsi,2)
  2074fa:	00 00 	addb	%al, (%rax)
  2074fc:	00 93 14 8d cb 00 	addb	%dl, 13339924(%rbx)
  207502:	00 00 	addb	%al, (%rax)
  207504:	17  <unknown>
  207505:	22 00 	andb	(%rax), %al
  207507:	00 00 	addb	%al, (%rax)
  207509:	00 00 	addb	%al, (%rax)
  20750b:	00 00 	addb	%al, (%rax)
  20750d:	17  <unknown>
  20750e:	01 00 	addl	%eax, (%rax)
  207510:	00 00 	addb	%al, (%rax)
  207512:	00 00 	addb	%al, (%rax)
  207514:	00 00 	addb	%al, (%rax)
  207516:	3b 16 	cmpl	(%rsi), %edx
  207518:	00 00 	addb	%al, (%rax)
  20751a:	00 00 	addb	%al, (%rax)
  20751c:	00 00 	addb	%al, (%rax)
  20751e:	00 00 	addb	%al, (%rax)
  207520:	09 54 72 5b 	orl	%edx, 91(%rdx,%rsi,2)
  207524:	00 00 	addb	%al, (%rax)
  207526:	00 93 14 8d cb 00 	addb	%dl, 13339924(%rbx)
  20752c:	00 00 	addb	%al, (%rax)
  20752e:	17  <unknown>
  20752f:	23 00 	andl	(%rax), %eax
  207531:	00 00 	addb	%al, (%rax)
  207533:	00 00 	addb	%al, (%rax)
  207535:	00 00 	addb	%al, (%rax)
  207537:	17  <unknown>
  207538:	01 00 	addl	%eax, (%rax)
  20753a:	00 00 	addb	%al, (%rax)
  20753c:	00 00 	addb	%al, (%rax)
  20753e:	00 00 	addb	%al, (%rax)
  207540:	3b 16 	cmpl	(%rsi), %edx
  207542:	00 00 	addb	%al, (%rax)
  207544:	00 00 	addb	%al, (%rax)
  207546:	00 00 	addb	%al, (%rax)
  207548:	00 00 	addb	%al, (%rax)
  20754a:	09 54 72 f2 	orl	%edx, -14(%rdx,%rsi,2)
  20754e:	00 00 	addb	%al, (%rax)
  207550:	00 93 14 8d cb 00 	addb	%dl, 13339924(%rbx)
  207556:	00 00 	addb	%al, (%rax)
  207558:	17  <unknown>
  207559:	24 00 	andb	$0, %al
  20755b:	00 00 	addb	%al, (%rax)
  20755d:	00 00 	addb	%al, (%rax)
  20755f:	00 00 	addb	%al, (%rax)
  207561:	17  <unknown>
  207562:	01 00 	addl	%eax, (%rax)
  207564:	00 00 	addb	%al, (%rax)
  207566:	00 00 	addb	%al, (%rax)
  207568:	00 00 	addb	%al, (%rax)
  20756a:	3b 16 	cmpl	(%rsi), %edx
  20756c:	00 00 	addb	%al, (%rax)
  20756e:	00 00 	addb	%al, (%rax)
  207570:	00 00 	addb	%al, (%rax)
  207572:	00 00 	addb	%al, (%rax)
  207574:	09 54 72 3a 	orl	%edx, 58(%rdx,%rsi,2)
  207578:	00 00 	addb	%al, (%rax)
  20757a:	00 93 14 8d cb 00 	addb	%dl, 13339924(%rbx)
  207580:	00 00 	addb	%al, (%rax)
  207582:	17  <unknown>
  207583:	25 00 00 00 00 	andl	$0, %eax
  207588:	00 00 	addb	%al, (%rax)
  20758a:	00 17 	addb	%dl, (%rdi)
  20758c:	01 00 	addl	%eax, (%rax)
  20758e:	00 00 	addb	%al, (%rax)
  207590:	00 00 	addb	%al, (%rax)
  207592:	00 00 	addb	%al, (%rax)
  207594:	3b 16 	cmpl	(%rsi), %edx
  207596:	00 00 	addb	%al, (%rax)
  207598:	00 00 	addb	%al, (%rax)
  20759a:	00 00 	addb	%al, (%rax)
  20759c:	00 00 	addb	%al, (%rax)
  20759e:	09 54 72 64 	orl	%edx, 100(%rdx,%rsi,2)
  2075a2:	00 00 	addb	%al, (%rax)
  2075a4:	00 93 14 8d cb 00 	addb	%dl, 13339924(%rbx)
  2075aa:	00 00 	addb	%al, (%rax)
  2075ac:	17  <unknown>
  2075ad:	26 00 00 	addb	%al, %es:(%rax)
  2075b0:	00 00 	addb	%al, (%rax)
  2075b2:	00 00 	addb	%al, (%rax)
  2075b4:	00 17 	addb	%dl, (%rdi)
  2075b6:	01 00 	addl	%eax, (%rax)
  2075b8:	00 00 	addb	%al, (%rax)
  2075ba:	00 00 	addb	%al, (%rax)
  2075bc:	00 00 	addb	%al, (%rax)
  2075be:	3b 16 	cmpl	(%rsi), %edx
  2075c0:	00 00 	addb	%al, (%rax)
  2075c2:	00 00 	addb	%al, (%rax)
  2075c4:	00 00 	addb	%al, (%rax)
  2075c6:	00 00 	addb	%al, (%rax)
  2075c8:	09 54 72 b3 	orl	%edx, -77(%rdx,%rsi,2)
  2075cc:	00 00 	addb	%al, (%rax)
  2075ce:	00 93 14 8d cb 00 	addb	%dl, 13339924(%rbx)
  2075d4:	00 00 	addb	%al, (%rax)
  2075d6:	17  <unknown>
  2075d7:	27  <unknown>
  2075d8:	00 00 	addb	%al, (%rax)
  2075da:	00 00 	addb	%al, (%rax)
  2075dc:	00 00 	addb	%al, (%rax)
  2075de:	00 17 	addb	%dl, (%rdi)
  2075e0:	01 00 	addl	%eax, (%rax)
  2075e2:	00 00 	addb	%al, (%rax)
  2075e4:	00 00 	addb	%al, (%rax)
  2075e6:	00 00 	addb	%al, (%rax)
  2075e8:	3b 16 	cmpl	(%rsi), %edx
  2075ea:	00 00 	addb	%al, (%rax)
  2075ec:	00 00 	addb	%al, (%rax)
  2075ee:	00 00 	addb	%al, (%rax)
  2075f0:	00 00 	addb	%al, (%rax)
  2075f2:	09 54 72 69 	orl	%edx, 105(%rdx,%rsi,2)
  2075f6:	00 00 	addb	%al, (%rax)
  2075f8:	00 93 14 8d cb 00 	addb	%dl, 13339924(%rbx)
  2075fe:	00 00 	addb	%al, (%rax)
  207600:	17  <unknown>
  207601:	28 00 	subb	%al, (%rax)
  207603:	00 00 	addb	%al, (%rax)
  207605:	00 00 	addb	%al, (%rax)
  207607:	00 00 	addb	%al, (%rax)
  207609:	17  <unknown>
  20760a:	01 00 	addl	%eax, (%rax)
  20760c:	00 00 	addb	%al, (%rax)
  20760e:	00 00 	addb	%al, (%rax)
  207610:	00 00 	addb	%al, (%rax)
  207612:	3b 16 	cmpl	(%rsi), %edx
  207614:	00 00 	addb	%al, (%rax)
  207616:	00 00 	addb	%al, (%rax)
  207618:	00 00 	addb	%al, (%rax)
  20761a:	00 00 	addb	%al, (%rax)
  20761c:	09 54 72 9f 	orl	%edx, -97(%rdx,%rsi,2)
  207620:	00 00 	addb	%al, (%rax)
  207622:	00 93 14 8d cb 00 	addb	%dl, 13339924(%rbx)
  207628:	00 00 	addb	%al, (%rax)
  20762a:	17  <unknown>
  20762b:	29 00 	subl	%eax, (%rax)
  20762d:	00 00 	addb	%al, (%rax)
  20762f:	00 00 	addb	%al, (%rax)
  207631:	00 00 	addb	%al, (%rax)
  207633:	17  <unknown>
  207634:	01 00 	addl	%eax, (%rax)
  207636:	00 00 	addb	%al, (%rax)
  207638:	00 00 	addb	%al, (%rax)
  20763a:	00 00 	addb	%al, (%rax)
  20763c:	3b 16 	cmpl	(%rsi), %edx
  20763e:	00 00 	addb	%al, (%rax)
  207640:	00 00 	addb	%al, (%rax)
  207642:	00 00 	addb	%al, (%rax)
  207644:	00 00 	addb	%al, (%rax)
  207646:	09 54 72 1d 	orl	%edx, 29(%rdx,%rsi,2)
  20764a:	00 00 	addb	%al, (%rax)
  20764c:	00 93 14 8d cb 00 	addb	%dl, 13339924(%rbx)
  207652:	00 00 	addb	%al, (%rax)
  207654:	17  <unknown>
  207655:	2a 00 	subb	(%rax), %al
  207657:	00 00 	addb	%al, (%rax)
  207659:	00 00 	addb	%al, (%rax)
  20765b:	00 00 	addb	%al, (%rax)
  20765d:	17  <unknown>
  20765e:	01 00 	addl	%eax, (%rax)
  207660:	00 00 	addb	%al, (%rax)
  207662:	00 00 	addb	%al, (%rax)
  207664:	00 00 	addb	%al, (%rax)
  207666:	3b 16 	cmpl	(%rsi), %edx
  207668:	00 00 	addb	%al, (%rax)
  20766a:	00 00 	addb	%al, (%rax)
  20766c:	00 00 	addb	%al, (%rax)
  20766e:	00 00 	addb	%al, (%rax)
  207670:	09 54 72 5b 	orl	%edx, 91(%rdx,%rsi,2)
  207674:	00 00 	addb	%al, (%rax)
  207676:	00 93 14 8d cb 00 	addb	%dl, 13339924(%rbx)
  20767c:	00 00 	addb	%al, (%rax)
  20767e:	17  <unknown>
  20767f:	2b 00 	subl	(%rax), %eax
  207681:	00 00 	addb	%al, (%rax)
  207683:	00 00 	addb	%al, (%rax)
  207685:	00 00 	addb	%al, (%rax)
  207687:	17  <unknown>
  207688:	01 00 	addl	%eax, (%rax)
  20768a:	00 00 	addb	%al, (%rax)
  20768c:	00 00 	addb	%al, (%rax)
  20768e:	00 00 	addb	%al, (%rax)
  207690:	3b 16 	cmpl	(%rsi), %edx
  207692:	00 00 	addb	%al, (%rax)
  207694:	00 00 	addb	%al, (%rax)
  207696:	00 00 	addb	%al, (%rax)
  207698:	00 00 	addb	%al, (%rax)
  20769a:	09 54 72 39 	orl	%edx, 57(%rdx,%rsi,2)
  20769e:	00 00 	addb	%al, (%rax)
  2076a0:	00 93 14 8d cb 00 	addb	%dl, 13339924(%rbx)
  2076a6:	00 00 	addb	%al, (%rax)
  2076a8:	17  <unknown>
  2076a9:	2c 00 	subb	$0, %al
  2076ab:	00 00 	addb	%al, (%rax)
  2076ad:	00 00 	addb	%al, (%rax)
  2076af:	00 00 	addb	%al, (%rax)
  2076b1:	17  <unknown>
  2076b2:	01 00 	addl	%eax, (%rax)
  2076b4:	00 00 	addb	%al, (%rax)
  2076b6:	00 00 	addb	%al, (%rax)
  2076b8:	00 00 	addb	%al, (%rax)
  2076ba:	3b 16 	cmpl	(%rsi), %edx
  2076bc:	00 00 	addb	%al, (%rax)
  2076be:	00 00 	addb	%al, (%rax)
  2076c0:	00 00 	addb	%al, (%rax)
  2076c2:	00 00 	addb	%al, (%rax)
  2076c4:	09 54 72 5e 	orl	%edx, 94(%rdx,%rsi,2)
  2076c8:	00 00 	addb	%al, (%rax)
  2076ca:	00 93 14 8d cb 00 	addb	%dl, 13339924(%rbx)
  2076d0:	00 00 	addb	%al, (%rax)
  2076d2:	17  <unknown>
  2076d3:	2d 00 00 00 00 	subl	$0, %eax
  2076d8:	00 00 	addb	%al, (%rax)
  2076da:	00 17 	addb	%dl, (%rdi)
  2076dc:	01 00 	addl	%eax, (%rax)
  2076de:	00 00 	addb	%al, (%rax)
  2076e0:	00 00 	addb	%al, (%rax)
  2076e2:	00 00 	addb	%al, (%rax)
  2076e4:	3b 16 	cmpl	(%rsi), %edx
  2076e6:	00 00 	addb	%al, (%rax)
  2076e8:	00 00 	addb	%al, (%rax)
  2076ea:	00 00 	addb	%al, (%rax)
  2076ec:	00 00 	addb	%al, (%rax)
  2076ee:	09 54 72 09 	orl	%edx, 9(%rdx,%rsi,2)
  2076f2:	00 00 	addb	%al, (%rax)
  2076f4:	00 93 14 8d cb 00 	addb	%dl, 13339924(%rbx)
  2076fa:	00 00 	addb	%al, (%rax)
  2076fc:	17  <unknown>
  2076fd:	2e 00 00 	addb	%al, %cs:(%rax)
  207700:	00 00 	addb	%al, (%rax)
  207702:	00 00 	addb	%al, (%rax)
  207704:	00 17 	addb	%dl, (%rdi)
  207706:	01 00 	addl	%eax, (%rax)
  207708:	00 00 	addb	%al, (%rax)
  20770a:	00 00 	addb	%al, (%rax)
  20770c:	00 00 	addb	%al, (%rax)
  20770e:	3b 16 	cmpl	(%rsi), %edx
  207710:	00 00 	addb	%al, (%rax)
  207712:	00 00 	addb	%al, (%rax)
  207714:	00 00 	addb	%al, (%rax)
  207716:	00 00 	addb	%al, (%rax)
  207718:	09 54 72 53 	orl	%edx, 83(%rdx,%rsi,2)
  20771c:	00 00 	addb	%al, (%rax)
  20771e:	00 93 14 8d cb 00 	addb	%dl, 13339924(%rbx)
  207724:	00 00 	addb	%al, (%rax)
  207726:	17  <unknown>
  207727:	2f  <unknown>
  207728:	00 00 	addb	%al, (%rax)
  20772a:	00 00 	addb	%al, (%rax)
  20772c:	00 00 	addb	%al, (%rax)
  20772e:	00 17 	addb	%dl, (%rdi)
  207730:	01 00 	addl	%eax, (%rax)
  207732:	00 00 	addb	%al, (%rax)
  207734:	00 00 	addb	%al, (%rax)
  207736:	00 00 	addb	%al, (%rax)
  207738:	3b 16 	cmpl	(%rsi), %edx
  20773a:	00 00 	addb	%al, (%rax)
  20773c:	00 00 	addb	%al, (%rax)
  20773e:	00 00 	addb	%al, (%rax)
  207740:	00 00 	addb	%al, (%rax)
  207742:	09 54 72 67 	orl	%edx, 103(%rdx,%rsi,2)
  207746:	00 00 	addb	%al, (%rax)
  207748:	00 93 14 8d cb 00 	addb	%dl, 13339924(%rbx)
  20774e:	00 00 	addb	%al, (%rax)
  207750:	17  <unknown>
  207751:	30 00 	xorb	%al, (%rax)
  207753:	00 00 	addb	%al, (%rax)
  207755:	00 00 	addb	%al, (%rax)
  207757:	00 00 	addb	%al, (%rax)
  207759:	17  <unknown>
  20775a:	01 00 	addl	%eax, (%rax)
  20775c:	00 00 	addb	%al, (%rax)
  20775e:	00 00 	addb	%al, (%rax)
  207760:	00 00 	addb	%al, (%rax)
  207762:	3b 16 	cmpl	(%rsi), %edx
  207764:	00 00 	addb	%al, (%rax)
  207766:	00 00 	addb	%al, (%rax)
  207768:	00 00 	addb	%al, (%rax)
  20776a:	00 00 	addb	%al, (%rax)
  20776c:	09 54 72 97 	orl	%edx, -105(%rdx,%rsi,2)
  207770:	00 00 	addb	%al, (%rax)
  207772:	00 93 14 8d cb 00 	addb	%dl, 13339924(%rbx)
  207778:	00 00 	addb	%al, (%rax)
  20777a:	17  <unknown>
  20777b:	31 00 	xorl	%eax, (%rax)
  20777d:	00 00 	addb	%al, (%rax)
  20777f:	00 00 	addb	%al, (%rax)
  207781:	00 00 	addb	%al, (%rax)
  207783:	17  <unknown>
  207784:	01 00 	addl	%eax, (%rax)
  207786:	00 00 	addb	%al, (%rax)
  207788:	00 00 	addb	%al, (%rax)
  20778a:	00 00 	addb	%al, (%rax)
  20778c:	3b 16 	cmpl	(%rsi), %edx
  20778e:	00 00 	addb	%al, (%rax)
  207790:	00 00 	addb	%al, (%rax)
  207792:	00 00 	addb	%al, (%rax)
  207794:	00 00 	addb	%al, (%rax)
  207796:	09 54 72 a9 	orl	%edx, -87(%rdx,%rsi,2)
  20779a:	00 00 	addb	%al, (%rax)
  20779c:	00 93 14 8d cb 00 	addb	%dl, 13339924(%rbx)
  2077a2:	00 00 	addb	%al, (%rax)
  2077a4:	17  <unknown>
  2077a5:	32 00 	xorb	(%rax), %al
  2077a7:	00 00 	addb	%al, (%rax)
  2077a9:	00 00 	addb	%al, (%rax)
  2077ab:	00 00 	addb	%al, (%rax)
  2077ad:	17  <unknown>
  2077ae:	01 00 	addl	%eax, (%rax)
  2077b0:	00 00 	addb	%al, (%rax)
  2077b2:	00 00 	addb	%al, (%rax)
  2077b4:	00 00 	addb	%al, (%rax)
  2077b6:	3b 16 	cmpl	(%rsi), %edx
  2077b8:	00 00 	addb	%al, (%rax)
  2077ba:	00 00 	addb	%al, (%rax)
  2077bc:	00 00 	addb	%al, (%rax)
  2077be:	00 00 	addb	%al, (%rax)
  2077c0:	09 54 72 21 	orl	%edx, 33(%rdx,%rsi,2)
  2077c4:	00 00 	addb	%al, (%rax)
  2077c6:	00 93 14 53 00 00 	addb	%dl, 21268(%rbx)
  2077cc:	00 00 	addb	%al, (%rax)
  2077ce:	aa 	stosb	%al, %es:(%rdi)
  2077cf:	0d 8d 04 01 00 	orl	$66701, %eax
  2077d4:	00 38 	addb	%bh, (%rax)
  2077d6:	bb 07 00 00 00 	movl	$7, %ebx
  2077db:	8d 18 	leal	(%rax), %ebx
  2077dd:	01 00 	addl	%eax, (%rax)
  2077df:	00 60 8d 	addb	%ah, -115(%rax)
  2077e2:	10 01 	adcb	%al, (%rcx)
  2077e4:	00 00 	addb	%al, (%rax)
  2077e6:	6e 	outsb	(%rsi), %dx
  2077e7:	45 04 00 	addb	$0, %al
  2077ea:	00 00 	addb	%al, (%rax)
  2077ec:	17  <unknown>
  2077ed:	33 00 	xorl	(%rax), %eax
  2077ef:	00 00 	addb	%al, (%rax)
  2077f1:	00 00 	addb	%al, (%rax)
  2077f3:	00 00 	addb	%al, (%rax)
  2077f5:	8d 10 	leal	(%rax), %edx
  2077f7:	01 00 	addl	%eax, (%rax)
  2077f9:	00 60 51 	addb	%ah, 81(%rax)
  2077fc:	7c 09 	jl	9 <.data+0x1807>
  2077fe:	00 00 	addb	%al, (%rax)
  207800:	00 45 2a 	addb	%al, 42(%rbp)
  207803:	00 00 	addb	%al, (%rax)
  207805:	00 cb 	addb	%cl, %bl
  207807:	07  <unknown>
  207808:	00 00 	addb	%al, (%rax)
  20780a:	00 0d 8d 20 01 00 	addb	%cl, 73869(%rip)
  207810:	00 38 	addb	%bh, (%rax)
  207812:	bb 08 00 00 00 	movl	$8, %ebx
  207817:	72 00 	jb	0 <.data+0x1819>
  207819:	00 00 	addb	%al, (%rax)
  20781b:	00 8d 28 01 00 00 	addb	%cl, 296(%rbp)
  207821:	1d 45 04 00 00 	sbbl	$1093, %eax
  207826:	00 45 59 	addb	%al, 89(%rbp)
  207829:	01 00 	addl	%eax, (%rax)
  20782b:	00 8d 2c 01 00 00 	addb	%cl, 300(%rbp)
  207831:	72 01 	jb	1 <.data+0x1834>
  207833:	00 00 	addb	%al, (%rax)
  207835:	00 93 14 72 00 00 	addb	%dl, 29204(%rbx)
  20783b:	00 00 	addb	%al, (%rax)
  20783d:	8d 2e 	leal	(%rsi), %ebp
  20783f:	01 00 	addl	%eax, (%rax)
  207841:	00 1d 45 04 00 00 	addb	%bl, 1093(%rip)
  207847:	00 53 00 	addb	%dl, (%rbx)
  20784a:	00 00 	addb	%al, (%rax)
  20784c:	00 aa 0d 8d 34 01 	addb	%ch, 20221197(%rdx)
  207852:	00 00 	addb	%al, (%rax)
  207854:	38 bb 09 00 00 00 	cmpb	%bh, 9(%rbx)
  20785a:	8d 48 01 	leal	1(%rax), %ecx
  20785d:	00 00 	addb	%al, (%rax)
  20785f:	60  <unknown>
  207860:	8d 40 01 	leal	1(%rax), %eax
  207863:	00 00 	addb	%al, (%rax)
  207865:	6e 	outsb	(%rsi), %dx
  207866:	45 04 00 	addb	$0, %al
  207869:	00 00 	addb	%al, (%rax)
  20786b:	8d 2e 	leal	(%rsi), %ebp
  20786d:	01 00 	addl	%eax, (%rax)
  20786f:	00 25 f3 8d 40 01 	addb	%ah, 21007859(%rip)
  207875:	00 00 	addb	%al, (%rax)
  207877:	60  <unknown>
  207878:	35 7c 0e 00 00 	xorl	$3708, %eax
  20787d:	00 45 04 	addb	%al, 4(%rbp)
  207880:	00 00 	addb	%al, (%rax)
  207882:	00 45 9d 	addb	%al, -99(%rbp)
  207885:	00 00 	addb	%al, (%rax)
  207887:	00 8d 98 00 00 00 	addb	%cl, 152(%rbp)
  20788d:	8d 2e 	leal	(%rsi), %ebp
  20788f:	01 00 	addl	%eax, (%rax)
  207891:	00 25 f3 17 01 00 	addb	%ah, 71667(%rip)
  207897:	00 00 	addb	%al, (%rax)
  207899:	00 00 	addb	%al, (%rax)
  20789b:	00 00 	addb	%al, (%rax)
  20789d:	3b 16 	cmpl	(%rsi), %edx
  20789f:	00 00 	addb	%al, (%rax)
  2078a1:	00 00 	addb	%al, (%rax)
  2078a3:	00 00 	addb	%al, (%rax)
  2078a5:	00 00 	addb	%al, (%rax)
  2078a7:	09 54 86 cd 	orl	%edx, -51(%rsi,%rax,4)
  2078ab:	8d 2e 	leal	(%rsi), %ebp
  2078ad:	01 00 	addl	%eax, (%rax)
  2078af:	00 25 f3 17 01 00 	addb	%ah, 71667(%rip)
  2078b5:	00 00 	addb	%al, (%rax)
  2078b7:	00 00 	addb	%al, (%rax)
  2078b9:	00 00 	addb	%al, (%rax)
  2078bb:	3b 53 00 	cmpl	(%rbx), %edx
  2078be:	00 00 	addb	%al, (%rax)
  2078c0:	00 aa 19 86 cd 8d 	addb	%ch, -1915910631(%rdx)
  2078c6:	cb 	lretl
  2078c7:	00 00 	addb	%al, (%rax)
  2078c9:	00 8d 2e 01 00 00 	addb	%cl, 302(%rbp)
  2078cf:	25 f3 17 01 00 	andl	$71667, %eax
  2078d4:	00 00 	addb	%al, (%rax)
  2078d6:	00 00 	addb	%al, (%rax)
  2078d8:	00 00 	addb	%al, (%rax)
  2078da:	3b 16 	cmpl	(%rsi), %edx
  2078dc:	00 00 	addb	%al, (%rax)
  2078de:	00 00 	addb	%al, (%rax)
  2078e0:	00 00 	addb	%al, (%rax)
  2078e2:	00 00 	addb	%al, (%rax)
  2078e4:	09 54 86 cd 	orl	%edx, -51(%rsi,%rax,4)
  2078e8:	65 39 7c 09 00 	cmpl	%edi, %gs:(%rcx,%rcx)
  2078ed:	00 00 	addb	%al, (%rax)
  2078ef:	45 15 00 00 00 8d 	adcl	$2365587456, %eax
  2078f5:	2c 01 	subb	$1, %al
  2078f7:	00 00 	addb	%al, (%rax)
  2078f9:	72 00 	jb	0 <.data+0x18fb>
  2078fb:	00 00 	addb	%al, (%rax)
  2078fd:	00 93 14 45 04 00 	addb	%dl, 279828(%rbx)
  207903:	00 00 	addb	%al, (%rax)
  207905:	8d 2e 	leal	(%rsi), %ebp
  207907:	01 00 	addl	%eax, (%rax)
  207909:	00 25 72 01 00 00 	addb	%ah, 370(%rip)
  20790f:	00 23 	addb	%ah, (%rbx)
  207911:	8d 2e 	leal	(%rsi), %ebp
  207913:	01 00 	addl	%eax, (%rax)
  207915:	00 1d 45 30 ff ff 	addb	%bl, -53179(%rip)
  20791b:	ff 45 2b 	incl	43(%rbp)
  20791e:	ff ff  <unknown>
  207920:	ff 8d 2c 01 00 00 	decl	300(%rbp)
  207926:	86 cd 	xchgb	%ch, %cl
  207928:	d6  <unknown>
  207929:	01 00 	addl	%eax, (%rax)
  20792b:	00 00 	addb	%al, (%rax)
  20792d:	2b 00 	subl	(%rax), %eax
  20792f:	00 00 	addb	%al, (%rax)
  207931:	01 00 	addl	%eax, (%rax)
  207933:	00 00 	addb	%al, (%rax)
  207935:	10 00 	adcb	%al, (%rax)
  207937:	00 00 	addb	%al, (%rax)
  207939:	cb 	lretl
  20793a:	17  <unknown>
  20793b:	00 00 	addb	%al, (%rax)
  20793d:	00 0d 8d 50 01 00 	addb	%cl, 86157(%rip)
  207943:	00 38 	addb	%bh, (%rax)
  207945:	bb 0a 00 00 00 	movl	$10, %ebx
  20794a:	45 04 00 	addb	$0, %al
  20794d:	00 00 	addb	%al, (%rax)
  20794f:	45 1f  <unknown>
  207951:	00 00 	addb	%al, (%rax)
  207953:	00 cb 	addb	%cl, %bl
  207955:	07  <unknown>
  207956:	00 00 	addb	%al, (%rax)
  207958:	00 0d 8d 58 01 00 	addb	%cl, 88205(%rip)
  20795e:	00 38 	addb	%bh, (%rax)
  207960:	bb 0b 00 00 00 	movl	$11, %ebx
  207965:	45 04 00 	addb	$0, %al
  207968:	00 00 	addb	%al, (%rax)
  20796a:	45 04 00 	addb	$0, %al
  20796d:	00 00 	addb	%al, (%rax)
  20796f:	8d 2c 01 	leal	(%rcx,%rax), %ebp
  207972:	00 00 	addb	%al, (%rax)
  207974:	86 cd 	xchgb	%ch, %cl
  207976:	8d 28 	leal	(%rax), %ebp
  207978:	01 00 	addl	%eax, (%rax)
  20797a:	00 1d 45 04 00 00 	addb	%bl, 1093(%rip)
  207980:	00 8d 28 01 00 00 	addb	%cl, 296(%rbp)
  207986:	25 a3 00 00 00 	andl	$163, %eax
  20798b:	00 00 	addb	%al, (%rax)
  20798d:	00 00 	addb	%al, (%rax)
  20798f:	00 00 	addb	%al, (%rax)
  207991:	00 00 	addb	%al, (%rax)
  207993:	00 00 	addb	%al, (%rax)
  207995:	00 00 	addb	%al, (%rax)
  207997:	00 00 	addb	%al, (%rax)
  207999:	00 00 	addb	%al, (%rax)
  20799b:	00 00 	addb	%al, (%rax)
  20799d:	00 00 	addb	%al, (%rax)
  20799f:	00 70 01 	addb	%dh, 1(%rax)
  2079a2:	00 00 	addb	%al, (%rax)
  2079a4:	52 	pushq	%rdx
  2079a5:	00 00 	addb	%al, (%rax)
  2079a7:	00 03 	addb	%al, (%rbx)
  2079a9:	00 00 	addb	%al, (%rax)
  2079ab:	00 66 01 	addb	%ah, 1(%rsi)
  2079ae:	00 00 	addb	%al, (%rax)
  2079b0:	da 01 	fiaddl	(%rcx)
  2079b2:	00 00 	addb	%al, (%rax)
  2079b4:	05 00 00 00 49 	addl	$1224736768, %eax
  2079b9:	00 00 	addb	%al, (%rax)
  2079bb:	00 b0 01 00 00 05 	addb	%dh, 83886081(%rax)
  2079c1:	00 00 	addb	%al, (%rax)
  2079c3:	00 c6 	addb	%al, %dh
  2079c5:	00 00 	addb	%al, (%rax)
  2079c7:	00 59 00 	addb	%bl, (%rcx)
  2079ca:	00 00 	addb	%al, (%rax)
  2079cc:	07  <unknown>
  2079cd:	00 00 	addb	%al, (%rax)
  2079cf:	00 9d 01 00 00 a5 	addb	%bl, -1526726655(%rbp)
  2079d5:	02 00 	addb	(%rax), %al
  2079d7:	00 60 00 	addb	%ah, (%rax)
  2079da:	00 00 	addb	%al, (%rax)
  2079dc:	8e 01 	movw	(%rcx), %es
  2079de:	00 00 	addb	%al, (%rax)
  2079e0:	e8 01 00 00 59 	callq	1493172225
  2079e5:	00 00 	addb	%al, (%rax)
  2079e7:	00 76 00 	addb	%dh, (%rsi)
  2079ea:	00 00 	addb	%al, (%rax)
  2079ec:	9e 	sahf
  2079ed:	02 00 	addb	(%rax), %al
  2079ef:	00 10 	addb	%dl, (%rax)
  2079f1:	00 00 	addb	%al, (%rax)
  2079f3:	00 b2 00 00 00 98 	addb	%dh, -1744830464(%rdx)
  2079f9:	00 00 	addb	%al, (%rax)
  2079fb:	00 2a 	addb	%ch, (%rdx)
  2079fd:	00 00 	addb	%al, (%rax)
  2079ff:	00 70 01 	addb	%dh, 1(%rax)
  207a02:	00 00 	addb	%al, (%rax)
  207a04:	3c 02 	cmpb	$2, %al
  207a06:	00 00 	addb	%al, (%rax)
  207a08:	5d 	popq	%rbp
  207a09:	00 00 	addb	%al, (%rax)
  207a0b:	00 9d 01 00 00 44 	addb	%bl, 1140850689(%rbp)
  207a11:	00 00 	addb	%al, (%rax)
  207a13:	00 00 	addb	%al, (%rax)
  207a15:	00 00 	addb	%al, (%rax)
  207a17:	00 00 	addb	%al, (%rax)
  207a19:	00 00 	addb	%al, (%rax)
  207a1b:	00 00 	addb	%al, (%rax)
  207a1d:	00 00 	addb	%al, (%rax)
  207a1f:	00 9e 00 00 00 28 	addb	%bl, 671088640(%rsi)
  207a25:	00 00 	addb	%al, (%rax)
  207a27:	00 03 	addb	%al, (%rbx)
  207a29:	00 00 	addb	%al, (%rax)
  207a2b:	00 17 	addb	%dl, (%rdi)
  207a2d:	00 00 	addb	%al, (%rax)
  207a2f:	00 c5 	addb	%al, %ch
  207a31:	01 00 	addl	%eax, (%rax)
  207a33:	00 05 00 00 00 ac 	addb	%al, -1409286144(%rip)
  207a39:	01 00 	addl	%eax, (%rax)
  207a3b:	00 b4 00 00 00 05 00 	addb	%dh, 327680(%rax,%rax)
  207a42:	00 00 	addb	%al, (%rax)
  207a44:	03 00 	addl	(%rax), %eax
  207a46:	00 00 	addb	%al, (%rax)
  207a48:	27  <unknown>
  207a49:	02 00 	addb	(%rax), %al
  207a4b:	00 07 	addb	%al, (%rdi)
  207a4d:	00 00 	addb	%al, (%rax)
  207a4f:	00 f3 	addb	%dh, %bl
  207a51:	00 00 	addb	%al, (%rax)
  207a53:	00 a2 01 00 00 41 	addb	%ah, 1090519041(%rdx)
  207a59:	00 00 	addb	%al, (%rax)
  207a5b:	00 a2 01 00 00 0c 	addb	%ah, 201326593(%rdx)
  207a61:	00 00 	addb	%al, (%rax)
  207a63:	00 24 00 	addb	%ah, (%rax,%rax)
  207a66:	00 00 	addb	%al, (%rax)
  207a68:	c0 01 00 	rolb	$0, (%rcx)
  207a6b:	00 86 01 00 00 30 	addb	%al, 805306369(%rsi)
  207a71:	00 00 	addb	%al, (%rax)
  207a73:	00 03 	addb	%al, (%rbx)
  207a75:	00 00 	addb	%al, (%rax)
  207a77:	00 13 	addb	%dl, (%rbx)
  207a79:	00 00 	addb	%al, (%rax)
  207a7b:	00 2b 	addb	%ch, (%rbx)
  207a7d:	00 00 	addb	%al, (%rax)
  207a7f:	00 17 	addb	%dl, (%rdi)
  207a81:	00 00 	addb	%al, (%rax)
  207a83:	00 ec 	addb	%ch, %ah
  207a85:	00 00 	addb	%al, (%rax)
  207a87:	00 53 00 	addb	%dl, (%rbx)
  207a8a:	00 00 	addb	%al, (%rax)
  207a8c:	12 00 	adcb	(%rax), %al
  207a8e:	00 00 	addb	%al, (%rax)
  207a90:	a6 	cmpsb	%es:(%rdi), (%rsi)
  207a91:	00 00 	addb	%al, (%rax)
  207a93:	00 00 	addb	%al, (%rax)
  207a95:	00 00 	addb	%al, (%rax)
  207a97:	00 00 	addb	%al, (%rax)
  207a99:	00 00 	addb	%al, (%rax)
  207a9b:	00 00 	addb	%al, (%rax)
  207a9d:	00 00 	addb	%al, (%rax)
  207a9f:	00 b7 00 00 00 c9 	addb	%dh, -922746880(%rdi)
  207aa5:	00 00 	addb	%al, (%rax)
  207aa7:	00 03 	addb	%al, (%rbx)
  207aa9:	00 00 	addb	%al, (%rax)
  207aab:	00 75 01 	addb	%dh, 1(%rbp)
  207aae:	00 00 	addb	%al, (%rax)
  207ab0:	05 00 00 00 05 	addl	$83886080, %eax
  207ab5:	00 00 	addb	%al, (%rax)
  207ab7:	00 07 	addb	%al, (%rdi)
  207ab9:	01 00 	addl	%eax, (%rax)
  207abb:	00 94 01 00 00 05 00 	addb	%dl, 327680(%rcx,%rax)
  207ac2:	00 00 	addb	%al, (%rax)
  207ac4:	3a 00 	cmpb	(%rax), %al
  207ac6:	00 00 	addb	%al, (%rax)
  207ac8:	3c 02 	cmpb	$2, %al
  207aca:	00 00 	addb	%al, (%rax)
  207acc:	07  <unknown>
  207acd:	00 00 	addb	%al, (%rax)
  207acf:	00 85 00 00 00 9b 	addb	%al, -1694498816(%rbp)
  207ad5:	01 00 	addl	%eax, (%rax)
  207ad7:	00 55 00 	addb	%dl, (%rbp)
  207ada:	00 00 	addb	%al, (%rax)
  207adc:	49 00 00 	addb	%al, (%r8)
  207adf:	00 4e 01 	addb	%cl, 1(%rsi)
  207ae2:	00 00 	addb	%al, (%rax)
  207ae4:	27  <unknown>
  207ae5:	00 00 	addb	%al, (%rax)
  207ae7:	00 4d 01 	addb	%cl, 1(%rbp)
  207aea:	00 00 	addb	%al, (%rax)
  207aec:	a6 	cmpsb	%es:(%rdi), (%rsi)
  207aed:	00 00 	addb	%al, (%rax)
  207aef:	00 36 	addb	%dh, (%rsi)
  207af1:	00 00 	addb	%al, (%rax)
  207af3:	00 b2 00 00 00 36 	addb	%dh, 905969664(%rdx)
  207af9:	00 00 	addb	%al, (%rax)
  207afb:	00 31 	addb	%dh, (%rcx)
  207afd:	00 00 	addb	%al, (%rax)
  207aff:	00 fd 	addb	%bh, %ch
  207b01:	00 00 	addb	%al, (%rax)
  207b03:	00 7f 01 	addb	%bh, 1(%rdi)
  207b06:	00 00 	addb	%al, (%rax)
  207b08:	62  <unknown>
  207b09:	00 00 	addb	%al, (%rax)
  207b0b:	00 a3 00 00 00 3d 	addb	%ah, 1023410176(%rbx)
  207b11:	00 00 	addb	%al, (%rax)
  207b13:	00 00 	addb	%al, (%rax)
  207b15:	00 00 	addb	%al, (%rax)
  207b17:	00 18 	addb	%bl, (%rax)
  207b19:	51 	pushq	%rcx
  207b1a:	00 00 	addb	%al, (%rax)
  207b1c:	00 00 	addb	%al, (%rax)
  207b1e:	00 00 	addb	%al, (%rax)
  207b20:	18 51 00 	sbbb	%dl, (%rcx)
  207b23:	00 00 	addb	%al, (%rax)
  207b25:	00 00 	addb	%al, (%rax)
  207b27:	00 20 	addb	%ah, (%rax)
  207b29:	51 	pushq	%rcx
  207b2a:	00 00 	addb	%al, (%rax)
  207b2c:	00 00 	addb	%al, (%rax)
  207b2e:	00 00 	addb	%al, (%rax)
Disassembly of section .bss:
.bss:
...
Disassembly of section .shstrtab:
.shstrtab:
       0:	00 2e 	addb	%ch, (%rsi)
       2:	73 68 	jae	104
       4:	73 74 	jae	116
       6:	72 74 	jb	116
       8:	61  <unknown>
       9:	62 00 2e 69  <unknown>
       d:	6e 	outsb	(%rsi), %dx
       e:	74 65 	je	101
      10:	72 70 	jb	112
      12:	00 2e 	addb	%ch, (%rsi)
      14:	67 6e 	outsb	(%esi), %dx
      16:	75 2e 	jne	46
      18:	68 61 73 68 00 	pushq	$6845281
      1d:	2e 64 79 6e 	jns	110
      21:	73 79 	jae	121
      23:	6d 	insl	%dx, %es:(%rdi)
      24:	00 2e 	addb	%ch, (%rsi)
      26:	64 79 6e 	jns	110
      29:	73 74 	jae	116
      2b:	72 00 	jb	0
      2d:	2e 67 6e 	outsb	%cs:(%esi), %dx
      30:	75 2e 	jne	46
      32:	76 65 	jbe	101
      34:	72 73 	jb	115
      36:	69 6f 6e 00 2e 67 6e 	imull	$1852255744, 110(%rdi), %ebp
      3d:	75 2e 	jne	46
      3f:	76 65 	jbe	101
      41:	72 73 	jb	115
      43:	69 6f 6e 5f 72 00 2e 	imull	$771781215, 110(%rdi), %ebp
      4a:	72 65 	jb	101
      4c:	6c 	insb	%dx, %es:(%rdi)
      4d:	61  <unknown>
      4e:	2e 64 79 6e 	jns	110
      52:	00 2e 	addb	%ch, (%rsi)
      54:	72 65 	jb	101
      56:	6c 	insb	%dx, %es:(%rdi)
      57:	61  <unknown>
      58:	2e 70 6c 	jo	108
      5b:	74 00 	je	0
      5d:	2e 69 6e 69 74 00 2e 70 	imull	$1882062964, %cs:105(%rsi), %ebp
      65:	6c 	insb	%dx, %es:(%rdi)
      66:	74 2e 	je	46
      68:	67 6f 	outsl	(%esi), %dx
      6a:	74 00 	je	0
      6c:	2e 74 65 	je	101
      6f:	78 74 	js	116
      71:	00 2e 	addb	%ch, (%rsi)
      73:	66 69 6e 69 00 2e 	imulw	$11776, 105(%rsi), %bp
      79:	72 6f 	jb	111
      7b:	64 61  <unknown>
      7d:	74 61 	je	97
      7f:	00 2e 	addb	%ch, (%rsi)
      81:	65 68 5f 66 72 61 	pushq	$1634887263
      87:	6d 	insl	%dx, %es:(%rdi)
      88:	65 5f 	popq	%rdi
      8a:	68 64 72 00 2e 	pushq	$771781220
      8f:	65 68 5f 66 72 61 	pushq	$1634887263
      95:	6d 	insl	%dx, %es:(%rdi)
      96:	65 00 2e 	addb	%ch, %gs:(%rsi)
      99:	69 6e 69 74 5f 61 72 	imull	$1918984052, 105(%rsi), %ebp
      a0:	72 61 	jb	97
      a2:	79 00 	jns	0
      a4:	2e 66 69 6e 69 5f 61 	imulw	$24927, %cs:105(%rsi), %bp
      ab:	72 72 	jb	114
      ad:	61  <unknown>
      ae:	79 00 	jns	0
      b0:	2e 64 79 6e 	jns	110
      b4:	61  <unknown>
      b5:	6d 	insl	%dx, %es:(%rdi)
      b6:	69 63 00 2e 64 61 74 	imull	$1952539694, (%rbx), %esp
      bd:	61  <unknown>
      be:	00 2e 	addb	%ch, (%rsi)
      c0:	62  <unknown>
      c1:	73 73 	jae	115
      c3:	00  <unknown>
